
B393_V1.elf:     file format elf32-avr

Sections:
Idx Name          Size      VMA       LMA       File off  Algn
  0 .data         00000000  00800100  00800100  00001102  2**0
                  CONTENTS, ALLOC, LOAD, DATA
  1 .text         0000108e  00000000  00000000  00000074  2**1
                  CONTENTS, ALLOC, LOAD, READONLY, CODE
  2 .bss          0000002a  00800100  00800100  00001102  2**0
                  ALLOC
  3 .comment      00000030  00000000  00000000  00001102  2**0
                  CONTENTS, READONLY
  4 .note.gnu.avr.deviceinfo 0000003c  00000000  00000000  00001134  2**2
                  CONTENTS, READONLY
  5 .debug_info   000005f4  00000000  00000000  00001170  2**0
                  CONTENTS, READONLY, DEBUGGING
  6 .debug_abbrev 000005a2  00000000  00000000  00001764  2**0
                  CONTENTS, READONLY, DEBUGGING
  7 .debug_line   00000134  00000000  00000000  00001d06  2**0
                  CONTENTS, READONLY, DEBUGGING
  8 .debug_str    00000208  00000000  00000000  00001e3a  2**0
                  CONTENTS, READONLY, DEBUGGING

Disassembly of section .text:

00000000 <__vectors>:
       0:	0c 94 34 00 	jmp	0x68	; 0x68 <__ctors_end>
       4:	0c 94 76 02 	jmp	0x4ec	; 0x4ec <__vector_1>
       8:	0c 94 a2 02 	jmp	0x544	; 0x544 <__vector_2>
       c:	0c 94 31 03 	jmp	0x662	; 0x662 <__vector_3>
      10:	0c 94 5e 03 	jmp	0x6bc	; 0x6bc <__vector_4>
      14:	0c 94 8b 03 	jmp	0x716	; 0x716 <__vector_5>
      18:	0c 94 46 00 	jmp	0x8c	; 0x8c <__bad_interrupt>
      1c:	0c 94 46 00 	jmp	0x8c	; 0x8c <__bad_interrupt>
      20:	0c 94 46 00 	jmp	0x8c	; 0x8c <__bad_interrupt>
      24:	0c 94 46 00 	jmp	0x8c	; 0x8c <__bad_interrupt>
      28:	0c 94 46 00 	jmp	0x8c	; 0x8c <__bad_interrupt>
      2c:	0c 94 46 00 	jmp	0x8c	; 0x8c <__bad_interrupt>
      30:	0c 94 46 00 	jmp	0x8c	; 0x8c <__bad_interrupt>
      34:	0c 94 d1 02 	jmp	0x5a2	; 0x5a2 <__vector_13>
      38:	0c 94 46 00 	jmp	0x8c	; 0x8c <__bad_interrupt>
      3c:	0c 94 46 00 	jmp	0x8c	; 0x8c <__bad_interrupt>
      40:	0c 94 46 00 	jmp	0x8c	; 0x8c <__bad_interrupt>
      44:	0c 94 46 00 	jmp	0x8c	; 0x8c <__bad_interrupt>
      48:	0c 94 fe 02 	jmp	0x5fc	; 0x5fc <__vector_18>
      4c:	0c 94 46 00 	jmp	0x8c	; 0x8c <__bad_interrupt>
      50:	0c 94 46 00 	jmp	0x8c	; 0x8c <__bad_interrupt>
      54:	0c 94 46 00 	jmp	0x8c	; 0x8c <__bad_interrupt>
      58:	0c 94 46 00 	jmp	0x8c	; 0x8c <__bad_interrupt>
      5c:	0c 94 46 00 	jmp	0x8c	; 0x8c <__bad_interrupt>
      60:	0c 94 46 00 	jmp	0x8c	; 0x8c <__bad_interrupt>
      64:	0c 94 46 00 	jmp	0x8c	; 0x8c <__bad_interrupt>

00000068 <__ctors_end>:
      68:	11 24       	eor	r1, r1
      6a:	1f be       	out	0x3f, r1	; 63
      6c:	cf ef       	ldi	r28, 0xFF	; 255
      6e:	d8 e0       	ldi	r29, 0x08	; 8
      70:	de bf       	out	0x3e, r29	; 62
      72:	cd bf       	out	0x3d, r28	; 61

00000074 <__do_clear_bss>:
      74:	21 e0       	ldi	r18, 0x01	; 1
      76:	a0 e0       	ldi	r26, 0x00	; 0
      78:	b1 e0       	ldi	r27, 0x01	; 1
      7a:	01 c0       	rjmp	.+2      	; 0x7e <.do_clear_bss_start>

0000007c <.do_clear_bss_loop>:
      7c:	1d 92       	st	X+, r1

0000007e <.do_clear_bss_start>:
      7e:	aa 32       	cpi	r26, 0x2A	; 42
      80:	b2 07       	cpc	r27, r18
      82:	e1 f7       	brne	.-8      	; 0x7c <.do_clear_bss_loop>
      84:	0e 94 23 07 	call	0xe46	; 0xe46 <main>
      88:	0c 94 45 08 	jmp	0x108a	; 0x108a <_exit>

0000008c <__bad_interrupt>:
      8c:	0c 94 00 00 	jmp	0	; 0x0 <__vectors>

00000090 <gpio_init>:
      90:	cf 93       	push	r28
      92:	df 93       	push	r29
      94:	00 d0       	rcall	.+0      	; 0x96 <gpio_init+0x6>
      96:	cd b7       	in	r28, 0x3d	; 61
      98:	de b7       	in	r29, 0x3e	; 62
      9a:	f8 94       	cli
      9c:	0e 94 c1 03 	call	0x782	; 0x782 <circuit_init>
      a0:	0e 94 b8 03 	call	0x770	; 0x770 <circuit_get_circuit>
      a4:	90 93 02 01 	sts	0x0102, r25	; 0x800102 <Circ+0x1>
      a8:	80 93 01 01 	sts	0x0101, r24	; 0x800101 <Circ>
      ac:	84 e2       	ldi	r24, 0x24	; 36
      ae:	90 e0       	ldi	r25, 0x00	; 0
      b0:	2c e2       	ldi	r18, 0x2C	; 44
      b2:	fc 01       	movw	r30, r24
      b4:	20 83       	st	Z, r18
      b6:	85 e2       	ldi	r24, 0x25	; 37
      b8:	90 e0       	ldi	r25, 0x00	; 0
      ba:	2f ef       	ldi	r18, 0xFF	; 255
      bc:	fc 01       	movw	r30, r24
      be:	20 83       	st	Z, r18
      c0:	87 e2       	ldi	r24, 0x27	; 39
      c2:	90 e0       	ldi	r25, 0x00	; 0
      c4:	27 e2       	ldi	r18, 0x27	; 39
      c6:	30 e0       	ldi	r19, 0x00	; 0
      c8:	f9 01       	movw	r30, r18
      ca:	20 81       	ld	r18, Z
      cc:	23 60       	ori	r18, 0x03	; 3
      ce:	fc 01       	movw	r30, r24
      d0:	20 83       	st	Z, r18
      d2:	88 e2       	ldi	r24, 0x28	; 40
      d4:	90 e0       	ldi	r25, 0x00	; 0
      d6:	2f ef       	ldi	r18, 0xFF	; 255
      d8:	fc 01       	movw	r30, r24
      da:	20 83       	st	Z, r18
      dc:	8a e2       	ldi	r24, 0x2A	; 42
      de:	90 e0       	ldi	r25, 0x00	; 0
      e0:	22 e0       	ldi	r18, 0x02	; 2
      e2:	fc 01       	movw	r30, r24
      e4:	20 83       	st	Z, r18
      e6:	8b e2       	ldi	r24, 0x2B	; 43
      e8:	90 e0       	ldi	r25, 0x00	; 0
      ea:	2f ef       	ldi	r18, 0xFF	; 255
      ec:	fc 01       	movw	r30, r24
      ee:	20 83       	st	Z, r18
      f0:	0e 94 2a 07 	call	0xe54	; 0xe54 <spi_init>
      f4:	88 e0       	ldi	r24, 0x08	; 8
      f6:	90 e0       	ldi	r25, 0x00	; 0
      f8:	9a 83       	std	Y+2, r25	; 0x02
      fa:	89 83       	std	Y+1, r24	; 0x01
      fc:	85 ec       	ldi	r24, 0xC5	; 197
      fe:	90 e0       	ldi	r25, 0x00	; 0
     100:	29 81       	ldd	r18, Y+1	; 0x01
     102:	3a 81       	ldd	r19, Y+2	; 0x02
     104:	23 2f       	mov	r18, r19
     106:	33 27       	eor	r19, r19
     108:	fc 01       	movw	r30, r24
     10a:	20 83       	st	Z, r18
     10c:	84 ec       	ldi	r24, 0xC4	; 196
     10e:	90 e0       	ldi	r25, 0x00	; 0
     110:	29 81       	ldd	r18, Y+1	; 0x01
     112:	fc 01       	movw	r30, r24
     114:	20 83       	st	Z, r18
     116:	82 ec       	ldi	r24, 0xC2	; 194
     118:	90 e0       	ldi	r25, 0x00	; 0
     11a:	26 e0       	ldi	r18, 0x06	; 6
     11c:	fc 01       	movw	r30, r24
     11e:	20 83       	st	Z, r18
     120:	81 ec       	ldi	r24, 0xC1	; 193
     122:	90 e0       	ldi	r25, 0x00	; 0
     124:	28 e9       	ldi	r18, 0x98	; 152
     126:	fc 01       	movw	r30, r24
     128:	20 83       	st	Z, r18
     12a:	84 e8       	ldi	r24, 0x84	; 132
     12c:	90 e0       	ldi	r25, 0x00	; 0
     12e:	27 e1       	ldi	r18, 0x17	; 23
     130:	3e ef       	ldi	r19, 0xFE	; 254
     132:	fc 01       	movw	r30, r24
     134:	31 83       	std	Z+1, r19	; 0x01
     136:	20 83       	st	Z, r18
     138:	81 e8       	ldi	r24, 0x81	; 129
     13a:	90 e0       	ldi	r25, 0x00	; 0
     13c:	25 e0       	ldi	r18, 0x05	; 5
     13e:	fc 01       	movw	r30, r24
     140:	20 83       	st	Z, r18
     142:	80 e8       	ldi	r24, 0x80	; 128
     144:	90 e0       	ldi	r25, 0x00	; 0
     146:	fc 01       	movw	r30, r24
     148:	10 82       	st	Z, r1
     14a:	8f e6       	ldi	r24, 0x6F	; 111
     14c:	90 e0       	ldi	r25, 0x00	; 0
     14e:	21 e0       	ldi	r18, 0x01	; 1
     150:	fc 01       	movw	r30, r24
     152:	20 83       	st	Z, r18
     154:	89 e6       	ldi	r24, 0x69	; 105
     156:	90 e0       	ldi	r25, 0x00	; 0
     158:	29 e6       	ldi	r18, 0x69	; 105
     15a:	30 e0       	ldi	r19, 0x00	; 0
     15c:	f9 01       	movw	r30, r18
     15e:	20 81       	ld	r18, Z
     160:	23 60       	ori	r18, 0x03	; 3
     162:	fc 01       	movw	r30, r24
     164:	20 83       	st	Z, r18
     166:	89 e6       	ldi	r24, 0x69	; 105
     168:	90 e0       	ldi	r25, 0x00	; 0
     16a:	29 e6       	ldi	r18, 0x69	; 105
     16c:	30 e0       	ldi	r19, 0x00	; 0
     16e:	f9 01       	movw	r30, r18
     170:	20 81       	ld	r18, Z
     172:	2c 60       	ori	r18, 0x0C	; 12
     174:	fc 01       	movw	r30, r24
     176:	20 83       	st	Z, r18
     178:	8d e3       	ldi	r24, 0x3D	; 61
     17a:	90 e0       	ldi	r25, 0x00	; 0
     17c:	2d e3       	ldi	r18, 0x3D	; 61
     17e:	30 e0       	ldi	r19, 0x00	; 0
     180:	f9 01       	movw	r30, r18
     182:	20 81       	ld	r18, Z
     184:	23 60       	ori	r18, 0x03	; 3
     186:	fc 01       	movw	r30, r24
     188:	20 83       	st	Z, r18
     18a:	78 94       	sei
     18c:	00 00       	nop
     18e:	0f 90       	pop	r0
     190:	0f 90       	pop	r0
     192:	df 91       	pop	r29
     194:	cf 91       	pop	r28
     196:	08 95       	ret

00000198 <gpio_do_uart_rx>:
     198:	cf 93       	push	r28
     19a:	df 93       	push	r29
     19c:	00 d0       	rcall	.+0      	; 0x19e <gpio_do_uart_rx+0x6>
     19e:	cd b7       	in	r28, 0x3d	; 61
     1a0:	de b7       	in	r29, 0x3e	; 62
     1a2:	1a 82       	std	Y+2, r1	; 0x02
     1a4:	19 82       	std	Y+1, r1	; 0x01
     1a6:	20 c0       	rjmp	.+64     	; 0x1e8 <gpio_do_uart_rx+0x50>
     1a8:	86 ec       	ldi	r24, 0xC6	; 198
     1aa:	90 e0       	ldi	r25, 0x00	; 0
     1ac:	40 91 01 01 	lds	r20, 0x0101	; 0x800101 <Circ>
     1b0:	50 91 02 01 	lds	r21, 0x0102	; 0x800102 <Circ+0x1>
     1b4:	29 81       	ldd	r18, Y+1	; 0x01
     1b6:	3a 81       	ldd	r19, Y+2	; 0x02
     1b8:	24 0f       	add	r18, r20
     1ba:	35 1f       	adc	r19, r21
     1bc:	27 5e       	subi	r18, 0xE7	; 231
     1be:	3f 4f       	sbci	r19, 0xFF	; 255
     1c0:	f9 01       	movw	r30, r18
     1c2:	20 81       	ld	r18, Z
     1c4:	fc 01       	movw	r30, r24
     1c6:	20 83       	st	Z, r18
     1c8:	00 00       	nop
     1ca:	80 ec       	ldi	r24, 0xC0	; 192
     1cc:	90 e0       	ldi	r25, 0x00	; 0
     1ce:	fc 01       	movw	r30, r24
     1d0:	80 81       	ld	r24, Z
     1d2:	88 2f       	mov	r24, r24
     1d4:	90 e0       	ldi	r25, 0x00	; 0
     1d6:	80 72       	andi	r24, 0x20	; 32
     1d8:	99 27       	eor	r25, r25
     1da:	89 2b       	or	r24, r25
     1dc:	b1 f3       	breq	.-20     	; 0x1ca <gpio_do_uart_rx+0x32>
     1de:	89 81       	ldd	r24, Y+1	; 0x01
     1e0:	9a 81       	ldd	r25, Y+2	; 0x02
     1e2:	01 96       	adiw	r24, 0x01	; 1
     1e4:	9a 83       	std	Y+2, r25	; 0x02
     1e6:	89 83       	std	Y+1, r24	; 0x01
     1e8:	89 81       	ldd	r24, Y+1	; 0x01
     1ea:	9a 81       	ldd	r25, Y+2	; 0x02
     1ec:	0e 97       	sbiw	r24, 0x0e	; 14
     1ee:	e4 f2       	brlt	.-72     	; 0x1a8 <gpio_do_uart_rx+0x10>
     1f0:	00 00       	nop
     1f2:	0f 90       	pop	r0
     1f4:	0f 90       	pop	r0
     1f6:	df 91       	pop	r29
     1f8:	cf 91       	pop	r28
     1fa:	08 95       	ret

000001fc <gpio_do_timer>:
     1fc:	cf 93       	push	r28
     1fe:	df 93       	push	r29
     200:	cd b7       	in	r28, 0x3d	; 61
     202:	de b7       	in	r29, 0x3e	; 62
     204:	f8 94       	cli
     206:	0e 94 28 01 	call	0x250	; 0x250 <gpio_do_update>
     20a:	80 91 00 01 	lds	r24, 0x0100	; 0x800100 <__DATA_REGION_ORIGIN__>
     20e:	8f 5f       	subi	r24, 0xFF	; 255
     210:	80 93 00 01 	sts	0x0100, r24	; 0x800100 <__DATA_REGION_ORIGIN__>
     214:	80 91 00 01 	lds	r24, 0x0100	; 0x800100 <__DATA_REGION_ORIGIN__>
     218:	81 31       	cpi	r24, 0x11	; 17
     21a:	70 f0       	brcs	.+28     	; 0x238 <gpio_do_timer+0x3c>
     21c:	85 e2       	ldi	r24, 0x25	; 37
     21e:	90 e0       	ldi	r25, 0x00	; 0
     220:	25 e2       	ldi	r18, 0x25	; 37
     222:	30 e0       	ldi	r19, 0x00	; 0
     224:	f9 01       	movw	r30, r18
     226:	30 81       	ld	r19, Z
     228:	24 e0       	ldi	r18, 0x04	; 4
     22a:	23 27       	eor	r18, r19
     22c:	fc 01       	movw	r30, r24
     22e:	20 83       	st	Z, r18
     230:	10 92 00 01 	sts	0x0100, r1	; 0x800100 <__DATA_REGION_ORIGIN__>
     234:	0e 94 cc 00 	call	0x198	; 0x198 <gpio_do_uart_rx>
     238:	84 e8       	ldi	r24, 0x84	; 132
     23a:	90 e0       	ldi	r25, 0x00	; 0
     23c:	27 e1       	ldi	r18, 0x17	; 23
     23e:	3e ef       	ldi	r19, 0xFE	; 254
     240:	fc 01       	movw	r30, r24
     242:	31 83       	std	Z+1, r19	; 0x01
     244:	20 83       	st	Z, r18
     246:	78 94       	sei
     248:	00 00       	nop
     24a:	df 91       	pop	r29
     24c:	cf 91       	pop	r28
     24e:	08 95       	ret

00000250 <gpio_do_update>:
     250:	cf 93       	push	r28
     252:	df 93       	push	r29
     254:	cd b7       	in	r28, 0x3d	; 61
     256:	de b7       	in	r29, 0x3e	; 62
     258:	80 91 01 01 	lds	r24, 0x0101	; 0x800101 <Circ>
     25c:	90 91 02 01 	lds	r25, 0x0102	; 0x800102 <Circ+0x1>
     260:	23 e2       	ldi	r18, 0x23	; 35
     262:	30 e0       	ldi	r19, 0x00	; 0
     264:	f9 01       	movw	r30, r18
     266:	20 81       	ld	r18, Z
     268:	22 2f       	mov	r18, r18
     26a:	30 e0       	ldi	r19, 0x00	; 0
     26c:	21 70       	andi	r18, 0x01	; 1
     26e:	33 27       	eor	r19, r19
     270:	41 e0       	ldi	r20, 0x01	; 1
     272:	23 2b       	or	r18, r19
     274:	09 f4       	brne	.+2      	; 0x278 <gpio_do_update+0x28>
     276:	40 e0       	ldi	r20, 0x00	; 0
     278:	fc 01       	movw	r30, r24
     27a:	47 87       	std	Z+15, r20	; 0x0f
     27c:	80 91 01 01 	lds	r24, 0x0101	; 0x800101 <Circ>
     280:	90 91 02 01 	lds	r25, 0x0102	; 0x800102 <Circ+0x1>
     284:	26 e2       	ldi	r18, 0x26	; 38
     286:	30 e0       	ldi	r19, 0x00	; 0
     288:	f9 01       	movw	r30, r18
     28a:	20 81       	ld	r18, Z
     28c:	22 2f       	mov	r18, r18
     28e:	30 e0       	ldi	r19, 0x00	; 0
     290:	24 70       	andi	r18, 0x04	; 4
     292:	33 27       	eor	r19, r19
     294:	41 e0       	ldi	r20, 0x01	; 1
     296:	23 2b       	or	r18, r19
     298:	09 f4       	brne	.+2      	; 0x29c <gpio_do_update+0x4c>
     29a:	40 e0       	ldi	r20, 0x00	; 0
     29c:	fc 01       	movw	r30, r24
     29e:	40 8b       	std	Z+16, r20	; 0x10
     2a0:	80 91 01 01 	lds	r24, 0x0101	; 0x800101 <Circ>
     2a4:	90 91 02 01 	lds	r25, 0x0102	; 0x800102 <Circ+0x1>
     2a8:	29 e2       	ldi	r18, 0x29	; 41
     2aa:	30 e0       	ldi	r19, 0x00	; 0
     2ac:	f9 01       	movw	r30, r18
     2ae:	20 81       	ld	r18, Z
     2b0:	22 2f       	mov	r18, r18
     2b2:	30 e0       	ldi	r19, 0x00	; 0
     2b4:	20 74       	andi	r18, 0x40	; 64
     2b6:	33 27       	eor	r19, r19
     2b8:	41 e0       	ldi	r20, 0x01	; 1
     2ba:	23 2b       	or	r18, r19
     2bc:	09 f4       	brne	.+2      	; 0x2c0 <gpio_do_update+0x70>
     2be:	40 e0       	ldi	r20, 0x00	; 0
     2c0:	fc 01       	movw	r30, r24
     2c2:	41 8b       	std	Z+17, r20	; 0x11
     2c4:	80 91 01 01 	lds	r24, 0x0101	; 0x800101 <Circ>
     2c8:	90 91 02 01 	lds	r25, 0x0102	; 0x800102 <Circ+0x1>
     2cc:	29 e2       	ldi	r18, 0x29	; 41
     2ce:	30 e0       	ldi	r19, 0x00	; 0
     2d0:	f9 01       	movw	r30, r18
     2d2:	20 81       	ld	r18, Z
     2d4:	22 2f       	mov	r18, r18
     2d6:	30 e0       	ldi	r19, 0x00	; 0
     2d8:	20 72       	andi	r18, 0x20	; 32
     2da:	33 27       	eor	r19, r19
     2dc:	41 e0       	ldi	r20, 0x01	; 1
     2de:	23 2b       	or	r18, r19
     2e0:	09 f4       	brne	.+2      	; 0x2e4 <gpio_do_update+0x94>
     2e2:	40 e0       	ldi	r20, 0x00	; 0
     2e4:	fc 01       	movw	r30, r24
     2e6:	42 8b       	std	Z+18, r20	; 0x12
     2e8:	80 91 01 01 	lds	r24, 0x0101	; 0x800101 <Circ>
     2ec:	90 91 02 01 	lds	r25, 0x0102	; 0x800102 <Circ+0x1>
     2f0:	29 e2       	ldi	r18, 0x29	; 41
     2f2:	30 e0       	ldi	r19, 0x00	; 0
     2f4:	f9 01       	movw	r30, r18
     2f6:	20 81       	ld	r18, Z
     2f8:	22 2f       	mov	r18, r18
     2fa:	30 e0       	ldi	r19, 0x00	; 0
     2fc:	20 71       	andi	r18, 0x10	; 16
     2fe:	33 27       	eor	r19, r19
     300:	41 e0       	ldi	r20, 0x01	; 1
     302:	23 2b       	or	r18, r19
     304:	09 f4       	brne	.+2      	; 0x308 <gpio_do_update+0xb8>
     306:	40 e0       	ldi	r20, 0x00	; 0
     308:	fc 01       	movw	r30, r24
     30a:	43 8b       	std	Z+19, r20	; 0x13
     30c:	80 91 01 01 	lds	r24, 0x0101	; 0x800101 <Circ>
     310:	90 91 02 01 	lds	r25, 0x0102	; 0x800102 <Circ+0x1>
     314:	26 e2       	ldi	r18, 0x26	; 38
     316:	30 e0       	ldi	r19, 0x00	; 0
     318:	f9 01       	movw	r30, r18
     31a:	20 81       	ld	r18, Z
     31c:	22 2f       	mov	r18, r18
     31e:	30 e0       	ldi	r19, 0x00	; 0
     320:	28 70       	andi	r18, 0x08	; 8
     322:	33 27       	eor	r19, r19
     324:	41 e0       	ldi	r20, 0x01	; 1
     326:	23 2b       	or	r18, r19
     328:	09 f4       	brne	.+2      	; 0x32c <gpio_do_update+0xdc>
     32a:	40 e0       	ldi	r20, 0x00	; 0
     32c:	fc 01       	movw	r30, r24
     32e:	44 8b       	std	Z+20, r20	; 0x14
     330:	80 91 01 01 	lds	r24, 0x0101	; 0x800101 <Circ>
     334:	90 91 02 01 	lds	r25, 0x0102	; 0x800102 <Circ+0x1>
     338:	29 e2       	ldi	r18, 0x29	; 41
     33a:	30 e0       	ldi	r19, 0x00	; 0
     33c:	f9 01       	movw	r30, r18
     33e:	20 81       	ld	r18, Z
     340:	22 2f       	mov	r18, r18
     342:	30 e0       	ldi	r19, 0x00	; 0
     344:	20 78       	andi	r18, 0x80	; 128
     346:	33 27       	eor	r19, r19
     348:	41 e0       	ldi	r20, 0x01	; 1
     34a:	23 2b       	or	r18, r19
     34c:	09 f4       	brne	.+2      	; 0x350 <gpio_do_update+0x100>
     34e:	40 e0       	ldi	r20, 0x00	; 0
     350:	fc 01       	movw	r30, r24
     352:	45 8b       	std	Z+21, r20	; 0x15
     354:	80 91 01 01 	lds	r24, 0x0101	; 0x800101 <Circ>
     358:	90 91 02 01 	lds	r25, 0x0102	; 0x800102 <Circ+0x1>
     35c:	26 e2       	ldi	r18, 0x26	; 38
     35e:	30 e0       	ldi	r19, 0x00	; 0
     360:	f9 01       	movw	r30, r18
     362:	20 81       	ld	r18, Z
     364:	22 2f       	mov	r18, r18
     366:	30 e0       	ldi	r19, 0x00	; 0
     368:	20 72       	andi	r18, 0x20	; 32
     36a:	33 27       	eor	r19, r19
     36c:	41 e0       	ldi	r20, 0x01	; 1
     36e:	23 2b       	or	r18, r19
     370:	09 f4       	brne	.+2      	; 0x374 <gpio_do_update+0x124>
     372:	40 e0       	ldi	r20, 0x00	; 0
     374:	fc 01       	movw	r30, r24
     376:	46 8b       	std	Z+22, r20	; 0x16
     378:	80 91 01 01 	lds	r24, 0x0101	; 0x800101 <Circ>
     37c:	90 91 02 01 	lds	r25, 0x0102	; 0x800102 <Circ+0x1>
     380:	29 e2       	ldi	r18, 0x29	; 41
     382:	30 e0       	ldi	r19, 0x00	; 0
     384:	f9 01       	movw	r30, r18
     386:	20 81       	ld	r18, Z
     388:	22 2f       	mov	r18, r18
     38a:	30 e0       	ldi	r19, 0x00	; 0
     38c:	20 71       	andi	r18, 0x10	; 16
     38e:	33 27       	eor	r19, r19
     390:	41 e0       	ldi	r20, 0x01	; 1
     392:	23 2b       	or	r18, r19
     394:	09 f4       	brne	.+2      	; 0x398 <gpio_do_update+0x148>
     396:	40 e0       	ldi	r20, 0x00	; 0
     398:	fc 01       	movw	r30, r24
     39a:	47 8b       	std	Z+23, r20	; 0x17
     39c:	80 91 01 01 	lds	r24, 0x0101	; 0x800101 <Circ>
     3a0:	90 91 02 01 	lds	r25, 0x0102	; 0x800102 <Circ+0x1>
     3a4:	23 e2       	ldi	r18, 0x23	; 35
     3a6:	30 e0       	ldi	r19, 0x00	; 0
     3a8:	f9 01       	movw	r30, r18
     3aa:	20 81       	ld	r18, Z
     3ac:	22 2f       	mov	r18, r18
     3ae:	30 e0       	ldi	r19, 0x00	; 0
     3b0:	22 70       	andi	r18, 0x02	; 2
     3b2:	33 27       	eor	r19, r19
     3b4:	41 e0       	ldi	r20, 0x01	; 1
     3b6:	23 2b       	or	r18, r19
     3b8:	09 f4       	brne	.+2      	; 0x3bc <gpio_do_update+0x16c>
     3ba:	40 e0       	ldi	r20, 0x00	; 0
     3bc:	fc 01       	movw	r30, r24
     3be:	40 8f       	std	Z+24, r20	; 0x18
     3c0:	0e 94 c0 06 	call	0xd80	; 0xd80 <circuit_update>
     3c4:	80 91 01 01 	lds	r24, 0x0101	; 0x800101 <Circ>
     3c8:	90 91 02 01 	lds	r25, 0x0102	; 0x800102 <Circ+0x1>
     3cc:	fc 01       	movw	r30, r24
     3ce:	81 8d       	ldd	r24, Z+25	; 0x19
     3d0:	68 2f       	mov	r22, r24
     3d2:	83 e1       	ldi	r24, 0x13	; 19
     3d4:	0e 94 50 07 	call	0xea0	; 0xea0 <spi_gpio>
     3d8:	80 91 01 01 	lds	r24, 0x0101	; 0x800101 <Circ>
     3dc:	90 91 02 01 	lds	r25, 0x0102	; 0x800102 <Circ+0x1>
     3e0:	fc 01       	movw	r30, r24
     3e2:	82 8d       	ldd	r24, Z+26	; 0x1a
     3e4:	68 2f       	mov	r22, r24
     3e6:	82 e1       	ldi	r24, 0x12	; 18
     3e8:	0e 94 50 07 	call	0xea0	; 0xea0 <spi_gpio>
     3ec:	80 91 01 01 	lds	r24, 0x0101	; 0x800101 <Circ>
     3f0:	90 91 02 01 	lds	r25, 0x0102	; 0x800102 <Circ+0x1>
     3f4:	fc 01       	movw	r30, r24
     3f6:	83 8d       	ldd	r24, Z+27	; 0x1b
     3f8:	68 2f       	mov	r22, r24
     3fa:	81 e1       	ldi	r24, 0x11	; 17
     3fc:	0e 94 50 07 	call	0xea0	; 0xea0 <spi_gpio>
     400:	80 91 01 01 	lds	r24, 0x0101	; 0x800101 <Circ>
     404:	90 91 02 01 	lds	r25, 0x0102	; 0x800102 <Circ+0x1>
     408:	fc 01       	movw	r30, r24
     40a:	84 8d       	ldd	r24, Z+28	; 0x1c
     40c:	68 2f       	mov	r22, r24
     40e:	84 e1       	ldi	r24, 0x14	; 20
     410:	0e 94 50 07 	call	0xea0	; 0xea0 <spi_gpio>
     414:	80 91 01 01 	lds	r24, 0x0101	; 0x800101 <Circ>
     418:	90 91 02 01 	lds	r25, 0x0102	; 0x800102 <Circ+0x1>
     41c:	fc 01       	movw	r30, r24
     41e:	85 8d       	ldd	r24, Z+29	; 0x1d
     420:	68 2f       	mov	r22, r24
     422:	85 e1       	ldi	r24, 0x15	; 21
     424:	0e 94 50 07 	call	0xea0	; 0xea0 <spi_gpio>
     428:	80 91 01 01 	lds	r24, 0x0101	; 0x800101 <Circ>
     42c:	90 91 02 01 	lds	r25, 0x0102	; 0x800102 <Circ+0x1>
     430:	fc 01       	movw	r30, r24
     432:	86 8d       	ldd	r24, Z+30	; 0x1e
     434:	68 2f       	mov	r22, r24
     436:	85 e0       	ldi	r24, 0x05	; 5
     438:	0e 94 50 07 	call	0xea0	; 0xea0 <spi_gpio>
     43c:	80 91 01 01 	lds	r24, 0x0101	; 0x800101 <Circ>
     440:	90 91 02 01 	lds	r25, 0x0102	; 0x800102 <Circ+0x1>
     444:	fc 01       	movw	r30, r24
     446:	87 8d       	ldd	r24, Z+31	; 0x1f
     448:	68 2f       	mov	r22, r24
     44a:	80 e1       	ldi	r24, 0x10	; 16
     44c:	0e 94 50 07 	call	0xea0	; 0xea0 <spi_gpio>
     450:	80 91 01 01 	lds	r24, 0x0101	; 0x800101 <Circ>
     454:	90 91 02 01 	lds	r25, 0x0102	; 0x800102 <Circ+0x1>
     458:	fc 01       	movw	r30, r24
     45a:	80 a1       	ldd	r24, Z+32	; 0x20
     45c:	68 2f       	mov	r22, r24
     45e:	83 e0       	ldi	r24, 0x03	; 3
     460:	0e 94 50 07 	call	0xea0	; 0xea0 <spi_gpio>
     464:	80 91 01 01 	lds	r24, 0x0101	; 0x800101 <Circ>
     468:	90 91 02 01 	lds	r25, 0x0102	; 0x800102 <Circ+0x1>
     46c:	fc 01       	movw	r30, r24
     46e:	81 a1       	ldd	r24, Z+33	; 0x21
     470:	68 2f       	mov	r22, r24
     472:	84 e0       	ldi	r24, 0x04	; 4
     474:	0e 94 50 07 	call	0xea0	; 0xea0 <spi_gpio>
     478:	80 91 01 01 	lds	r24, 0x0101	; 0x800101 <Circ>
     47c:	90 91 02 01 	lds	r25, 0x0102	; 0x800102 <Circ+0x1>
     480:	fc 01       	movw	r30, r24
     482:	82 a1       	ldd	r24, Z+34	; 0x22
     484:	68 2f       	mov	r22, r24
     486:	82 e0       	ldi	r24, 0x02	; 2
     488:	0e 94 50 07 	call	0xea0	; 0xea0 <spi_gpio>
     48c:	80 91 01 01 	lds	r24, 0x0101	; 0x800101 <Circ>
     490:	90 91 02 01 	lds	r25, 0x0102	; 0x800102 <Circ+0x1>
     494:	fc 01       	movw	r30, r24
     496:	83 a1       	ldd	r24, Z+35	; 0x23
     498:	68 2f       	mov	r22, r24
     49a:	86 e1       	ldi	r24, 0x16	; 22
     49c:	0e 94 50 07 	call	0xea0	; 0xea0 <spi_gpio>
     4a0:	80 91 01 01 	lds	r24, 0x0101	; 0x800101 <Circ>
     4a4:	90 91 02 01 	lds	r25, 0x0102	; 0x800102 <Circ+0x1>
     4a8:	fc 01       	movw	r30, r24
     4aa:	84 a1       	ldd	r24, Z+36	; 0x24
     4ac:	68 2f       	mov	r22, r24
     4ae:	87 e1       	ldi	r24, 0x17	; 23
     4b0:	0e 94 50 07 	call	0xea0	; 0xea0 <spi_gpio>
     4b4:	80 91 01 01 	lds	r24, 0x0101	; 0x800101 <Circ>
     4b8:	90 91 02 01 	lds	r25, 0x0102	; 0x800102 <Circ+0x1>
     4bc:	fc 01       	movw	r30, r24
     4be:	85 a1       	ldd	r24, Z+37	; 0x25
     4c0:	68 2f       	mov	r22, r24
     4c2:	81 e0       	ldi	r24, 0x01	; 1
     4c4:	0e 94 50 07 	call	0xea0	; 0xea0 <spi_gpio>
     4c8:	80 91 01 01 	lds	r24, 0x0101	; 0x800101 <Circ>
     4cc:	90 91 02 01 	lds	r25, 0x0102	; 0x800102 <Circ+0x1>
     4d0:	fc 01       	movw	r30, r24
     4d2:	86 a1       	ldd	r24, Z+38	; 0x26
     4d4:	68 2f       	mov	r22, r24
     4d6:	80 e0       	ldi	r24, 0x00	; 0
     4d8:	0e 94 50 07 	call	0xea0	; 0xea0 <spi_gpio>
     4dc:	60 e0       	ldi	r22, 0x00	; 0
     4de:	86 e0       	ldi	r24, 0x06	; 6
     4e0:	0e 94 50 07 	call	0xea0	; 0xea0 <spi_gpio>
     4e4:	00 00       	nop
     4e6:	df 91       	pop	r29
     4e8:	cf 91       	pop	r28
     4ea:	08 95       	ret

000004ec <__vector_1>:
     4ec:	1f 92       	push	r1
     4ee:	0f 92       	push	r0
     4f0:	00 90 5f 00 	lds	r0, 0x005F	; 0x80005f <__TEXT_REGION_LENGTH__+0x7f805f>
     4f4:	0f 92       	push	r0
     4f6:	11 24       	eor	r1, r1
     4f8:	8f 93       	push	r24
     4fa:	9f 93       	push	r25
     4fc:	ef 93       	push	r30
     4fe:	ff 93       	push	r31
     500:	cf 93       	push	r28
     502:	df 93       	push	r29
     504:	cd b7       	in	r28, 0x3d	; 61
     506:	de b7       	in	r29, 0x3e	; 62
     508:	f8 94       	cli
     50a:	86 ec       	ldi	r24, 0xC6	; 198
     50c:	90 e0       	ldi	r25, 0x00	; 0
     50e:	fc 01       	movw	r30, r24
     510:	10 82       	st	Z, r1
     512:	00 00       	nop
     514:	80 ec       	ldi	r24, 0xC0	; 192
     516:	90 e0       	ldi	r25, 0x00	; 0
     518:	fc 01       	movw	r30, r24
     51a:	80 81       	ld	r24, Z
     51c:	88 2f       	mov	r24, r24
     51e:	90 e0       	ldi	r25, 0x00	; 0
     520:	80 72       	andi	r24, 0x20	; 32
     522:	99 27       	eor	r25, r25
     524:	89 2b       	or	r24, r25
     526:	b1 f3       	breq	.-20     	; 0x514 <__vector_1+0x28>
     528:	78 94       	sei
     52a:	00 00       	nop
     52c:	df 91       	pop	r29
     52e:	cf 91       	pop	r28
     530:	ff 91       	pop	r31
     532:	ef 91       	pop	r30
     534:	9f 91       	pop	r25
     536:	8f 91       	pop	r24
     538:	0f 90       	pop	r0
     53a:	00 92 5f 00 	sts	0x005F, r0	; 0x80005f <__TEXT_REGION_LENGTH__+0x7f805f>
     53e:	0f 90       	pop	r0
     540:	1f 90       	pop	r1
     542:	18 95       	reti

00000544 <__vector_2>:
     544:	1f 92       	push	r1
     546:	0f 92       	push	r0
     548:	00 90 5f 00 	lds	r0, 0x005F	; 0x80005f <__TEXT_REGION_LENGTH__+0x7f805f>
     54c:	0f 92       	push	r0
     54e:	11 24       	eor	r1, r1
     550:	2f 93       	push	r18
     552:	8f 93       	push	r24
     554:	9f 93       	push	r25
     556:	ef 93       	push	r30
     558:	ff 93       	push	r31
     55a:	cf 93       	push	r28
     55c:	df 93       	push	r29
     55e:	cd b7       	in	r28, 0x3d	; 61
     560:	de b7       	in	r29, 0x3e	; 62
     562:	f8 94       	cli
     564:	86 ec       	ldi	r24, 0xC6	; 198
     566:	90 e0       	ldi	r25, 0x00	; 0
     568:	21 e0       	ldi	r18, 0x01	; 1
     56a:	fc 01       	movw	r30, r24
     56c:	20 83       	st	Z, r18
     56e:	00 00       	nop
     570:	80 ec       	ldi	r24, 0xC0	; 192
     572:	90 e0       	ldi	r25, 0x00	; 0
     574:	fc 01       	movw	r30, r24
     576:	80 81       	ld	r24, Z
     578:	88 2f       	mov	r24, r24
     57a:	90 e0       	ldi	r25, 0x00	; 0
     57c:	80 72       	andi	r24, 0x20	; 32
     57e:	99 27       	eor	r25, r25
     580:	89 2b       	or	r24, r25
     582:	b1 f3       	breq	.-20     	; 0x570 <__vector_2+0x2c>
     584:	78 94       	sei
     586:	00 00       	nop
     588:	df 91       	pop	r29
     58a:	cf 91       	pop	r28
     58c:	ff 91       	pop	r31
     58e:	ef 91       	pop	r30
     590:	9f 91       	pop	r25
     592:	8f 91       	pop	r24
     594:	2f 91       	pop	r18
     596:	0f 90       	pop	r0
     598:	00 92 5f 00 	sts	0x005F, r0	; 0x80005f <__TEXT_REGION_LENGTH__+0x7f805f>
     59c:	0f 90       	pop	r0
     59e:	1f 90       	pop	r1
     5a0:	18 95       	reti

000005a2 <__vector_13>:
     5a2:	1f 92       	push	r1
     5a4:	0f 92       	push	r0
     5a6:	00 90 5f 00 	lds	r0, 0x005F	; 0x80005f <__TEXT_REGION_LENGTH__+0x7f805f>
     5aa:	0f 92       	push	r0
     5ac:	11 24       	eor	r1, r1
     5ae:	2f 93       	push	r18
     5b0:	3f 93       	push	r19
     5b2:	4f 93       	push	r20
     5b4:	5f 93       	push	r21
     5b6:	6f 93       	push	r22
     5b8:	7f 93       	push	r23
     5ba:	8f 93       	push	r24
     5bc:	9f 93       	push	r25
     5be:	af 93       	push	r26
     5c0:	bf 93       	push	r27
     5c2:	ef 93       	push	r30
     5c4:	ff 93       	push	r31
     5c6:	cf 93       	push	r28
     5c8:	df 93       	push	r29
     5ca:	cd b7       	in	r28, 0x3d	; 61
     5cc:	de b7       	in	r29, 0x3e	; 62
     5ce:	0e 94 fe 00 	call	0x1fc	; 0x1fc <gpio_do_timer>
     5d2:	00 00       	nop
     5d4:	df 91       	pop	r29
     5d6:	cf 91       	pop	r28
     5d8:	ff 91       	pop	r31
     5da:	ef 91       	pop	r30
     5dc:	bf 91       	pop	r27
     5de:	af 91       	pop	r26
     5e0:	9f 91       	pop	r25
     5e2:	8f 91       	pop	r24
     5e4:	7f 91       	pop	r23
     5e6:	6f 91       	pop	r22
     5e8:	5f 91       	pop	r21
     5ea:	4f 91       	pop	r20
     5ec:	3f 91       	pop	r19
     5ee:	2f 91       	pop	r18
     5f0:	0f 90       	pop	r0
     5f2:	00 92 5f 00 	sts	0x005F, r0	; 0x80005f <__TEXT_REGION_LENGTH__+0x7f805f>
     5f6:	0f 90       	pop	r0
     5f8:	1f 90       	pop	r1
     5fa:	18 95       	reti

000005fc <__vector_18>:
     5fc:	1f 92       	push	r1
     5fe:	0f 92       	push	r0
     600:	00 90 5f 00 	lds	r0, 0x005F	; 0x80005f <__TEXT_REGION_LENGTH__+0x7f805f>
     604:	0f 92       	push	r0
     606:	11 24       	eor	r1, r1
     608:	2f 93       	push	r18
     60a:	3f 93       	push	r19
     60c:	4f 93       	push	r20
     60e:	5f 93       	push	r21
     610:	6f 93       	push	r22
     612:	7f 93       	push	r23
     614:	8f 93       	push	r24
     616:	9f 93       	push	r25
     618:	af 93       	push	r26
     61a:	bf 93       	push	r27
     61c:	ef 93       	push	r30
     61e:	ff 93       	push	r31
     620:	cf 93       	push	r28
     622:	df 93       	push	r29
     624:	cd b7       	in	r28, 0x3d	; 61
     626:	de b7       	in	r29, 0x3e	; 62
     628:	f8 94       	cli
     62a:	86 ec       	ldi	r24, 0xC6	; 198
     62c:	90 e0       	ldi	r25, 0x00	; 0
     62e:	fc 01       	movw	r30, r24
     630:	80 81       	ld	r24, Z
     632:	0e 94 cc 00 	call	0x198	; 0x198 <gpio_do_uart_rx>
     636:	78 94       	sei
     638:	00 00       	nop
     63a:	df 91       	pop	r29
     63c:	cf 91       	pop	r28
     63e:	ff 91       	pop	r31
     640:	ef 91       	pop	r30
     642:	bf 91       	pop	r27
     644:	af 91       	pop	r26
     646:	9f 91       	pop	r25
     648:	8f 91       	pop	r24
     64a:	7f 91       	pop	r23
     64c:	6f 91       	pop	r22
     64e:	5f 91       	pop	r21
     650:	4f 91       	pop	r20
     652:	3f 91       	pop	r19
     654:	2f 91       	pop	r18
     656:	0f 90       	pop	r0
     658:	00 92 5f 00 	sts	0x005F, r0	; 0x80005f <__TEXT_REGION_LENGTH__+0x7f805f>
     65c:	0f 90       	pop	r0
     65e:	1f 90       	pop	r1
     660:	18 95       	reti

00000662 <__vector_3>:
     662:	1f 92       	push	r1
     664:	0f 92       	push	r0
     666:	00 90 5f 00 	lds	r0, 0x005F	; 0x80005f <__TEXT_REGION_LENGTH__+0x7f805f>
     66a:	0f 92       	push	r0
     66c:	11 24       	eor	r1, r1
     66e:	2f 93       	push	r18
     670:	3f 93       	push	r19
     672:	4f 93       	push	r20
     674:	5f 93       	push	r21
     676:	6f 93       	push	r22
     678:	7f 93       	push	r23
     67a:	8f 93       	push	r24
     67c:	9f 93       	push	r25
     67e:	af 93       	push	r26
     680:	bf 93       	push	r27
     682:	ef 93       	push	r30
     684:	ff 93       	push	r31
     686:	cf 93       	push	r28
     688:	df 93       	push	r29
     68a:	cd b7       	in	r28, 0x3d	; 61
     68c:	de b7       	in	r29, 0x3e	; 62
     68e:	0e 94 28 01 	call	0x250	; 0x250 <gpio_do_update>
     692:	00 00       	nop
     694:	df 91       	pop	r29
     696:	cf 91       	pop	r28
     698:	ff 91       	pop	r31
     69a:	ef 91       	pop	r30
     69c:	bf 91       	pop	r27
     69e:	af 91       	pop	r26
     6a0:	9f 91       	pop	r25
     6a2:	8f 91       	pop	r24
     6a4:	7f 91       	pop	r23
     6a6:	6f 91       	pop	r22
     6a8:	5f 91       	pop	r21
     6aa:	4f 91       	pop	r20
     6ac:	3f 91       	pop	r19
     6ae:	2f 91       	pop	r18
     6b0:	0f 90       	pop	r0
     6b2:	00 92 5f 00 	sts	0x005F, r0	; 0x80005f <__TEXT_REGION_LENGTH__+0x7f805f>
     6b6:	0f 90       	pop	r0
     6b8:	1f 90       	pop	r1
     6ba:	18 95       	reti

000006bc <__vector_4>:
     6bc:	1f 92       	push	r1
     6be:	0f 92       	push	r0
     6c0:	00 90 5f 00 	lds	r0, 0x005F	; 0x80005f <__TEXT_REGION_LENGTH__+0x7f805f>
     6c4:	0f 92       	push	r0
     6c6:	11 24       	eor	r1, r1
     6c8:	2f 93       	push	r18
     6ca:	3f 93       	push	r19
     6cc:	4f 93       	push	r20
     6ce:	5f 93       	push	r21
     6d0:	6f 93       	push	r22
     6d2:	7f 93       	push	r23
     6d4:	8f 93       	push	r24
     6d6:	9f 93       	push	r25
     6d8:	af 93       	push	r26
     6da:	bf 93       	push	r27
     6dc:	ef 93       	push	r30
     6de:	ff 93       	push	r31
     6e0:	cf 93       	push	r28
     6e2:	df 93       	push	r29
     6e4:	cd b7       	in	r28, 0x3d	; 61
     6e6:	de b7       	in	r29, 0x3e	; 62
     6e8:	0e 94 28 01 	call	0x250	; 0x250 <gpio_do_update>
     6ec:	00 00       	nop
     6ee:	df 91       	pop	r29
     6f0:	cf 91       	pop	r28
     6f2:	ff 91       	pop	r31
     6f4:	ef 91       	pop	r30
     6f6:	bf 91       	pop	r27
     6f8:	af 91       	pop	r26
     6fa:	9f 91       	pop	r25
     6fc:	8f 91       	pop	r24
     6fe:	7f 91       	pop	r23
     700:	6f 91       	pop	r22
     702:	5f 91       	pop	r21
     704:	4f 91       	pop	r20
     706:	3f 91       	pop	r19
     708:	2f 91       	pop	r18
     70a:	0f 90       	pop	r0
     70c:	00 92 5f 00 	sts	0x005F, r0	; 0x80005f <__TEXT_REGION_LENGTH__+0x7f805f>
     710:	0f 90       	pop	r0
     712:	1f 90       	pop	r1
     714:	18 95       	reti

00000716 <__vector_5>:
     716:	1f 92       	push	r1
     718:	0f 92       	push	r0
     71a:	00 90 5f 00 	lds	r0, 0x005F	; 0x80005f <__TEXT_REGION_LENGTH__+0x7f805f>
     71e:	0f 92       	push	r0
     720:	11 24       	eor	r1, r1
     722:	2f 93       	push	r18
     724:	3f 93       	push	r19
     726:	4f 93       	push	r20
     728:	5f 93       	push	r21
     72a:	6f 93       	push	r22
     72c:	7f 93       	push	r23
     72e:	8f 93       	push	r24
     730:	9f 93       	push	r25
     732:	af 93       	push	r26
     734:	bf 93       	push	r27
     736:	ef 93       	push	r30
     738:	ff 93       	push	r31
     73a:	cf 93       	push	r28
     73c:	df 93       	push	r29
     73e:	cd b7       	in	r28, 0x3d	; 61
     740:	de b7       	in	r29, 0x3e	; 62
     742:	0e 94 28 01 	call	0x250	; 0x250 <gpio_do_update>
     746:	00 00       	nop
     748:	df 91       	pop	r29
     74a:	cf 91       	pop	r28
     74c:	ff 91       	pop	r31
     74e:	ef 91       	pop	r30
     750:	bf 91       	pop	r27
     752:	af 91       	pop	r26
     754:	9f 91       	pop	r25
     756:	8f 91       	pop	r24
     758:	7f 91       	pop	r23
     75a:	6f 91       	pop	r22
     75c:	5f 91       	pop	r21
     75e:	4f 91       	pop	r20
     760:	3f 91       	pop	r19
     762:	2f 91       	pop	r18
     764:	0f 90       	pop	r0
     766:	00 92 5f 00 	sts	0x005F, r0	; 0x80005f <__TEXT_REGION_LENGTH__+0x7f805f>
     76a:	0f 90       	pop	r0
     76c:	1f 90       	pop	r1
     76e:	18 95       	reti

00000770 <circuit_get_circuit>:
     770:	cf 93       	push	r28
     772:	df 93       	push	r29
     774:	cd b7       	in	r28, 0x3d	; 61
     776:	de b7       	in	r29, 0x3e	; 62
     778:	83 e0       	ldi	r24, 0x03	; 3
     77a:	91 e0       	ldi	r25, 0x01	; 1
     77c:	df 91       	pop	r29
     77e:	cf 91       	pop	r28
     780:	08 95       	ret

00000782 <circuit_init>:
     782:	cf 93       	push	r28
     784:	df 93       	push	r29
     786:	00 d0       	rcall	.+0      	; 0x788 <circuit_init+0x6>
     788:	00 d0       	rcall	.+0      	; 0x78a <circuit_init+0x8>
     78a:	1f 92       	push	r1
     78c:	cd b7       	in	r28, 0x3d	; 61
     78e:	de b7       	in	r29, 0x3e	; 62
     790:	1a 82       	std	Y+2, r1	; 0x02
     792:	19 82       	std	Y+1, r1	; 0x01
     794:	1a c0       	rjmp	.+52     	; 0x7ca <circuit_init+0x48>
     796:	ce 01       	movw	r24, r28
     798:	03 96       	adiw	r24, 0x03	; 3
     79a:	0e 94 cc 06 	call	0xd98	; 0xd98 <logic_gates_make_flipflop>
     79e:	29 81       	ldd	r18, Y+1	; 0x01
     7a0:	3a 81       	ldd	r19, Y+2	; 0x02
     7a2:	c9 01       	movw	r24, r18
     7a4:	88 0f       	add	r24, r24
     7a6:	99 1f       	adc	r25, r25
     7a8:	82 0f       	add	r24, r18
     7aa:	93 1f       	adc	r25, r19
     7ac:	9c 01       	movw	r18, r24
     7ae:	2d 5f       	subi	r18, 0xFD	; 253
     7b0:	3e 4f       	sbci	r19, 0xFE	; 254
     7b2:	8b 81       	ldd	r24, Y+3	; 0x03
     7b4:	9c 81       	ldd	r25, Y+4	; 0x04
     7b6:	ad 81       	ldd	r26, Y+5	; 0x05
     7b8:	f9 01       	movw	r30, r18
     7ba:	80 83       	st	Z, r24
     7bc:	91 83       	std	Z+1, r25	; 0x01
     7be:	a2 83       	std	Z+2, r26	; 0x02
     7c0:	89 81       	ldd	r24, Y+1	; 0x01
     7c2:	9a 81       	ldd	r25, Y+2	; 0x02
     7c4:	01 96       	adiw	r24, 0x01	; 1
     7c6:	9a 83       	std	Y+2, r25	; 0x02
     7c8:	89 83       	std	Y+1, r24	; 0x01
     7ca:	89 81       	ldd	r24, Y+1	; 0x01
     7cc:	9a 81       	ldd	r25, Y+2	; 0x02
     7ce:	05 97       	sbiw	r24, 0x05	; 5
     7d0:	14 f3       	brlt	.-60     	; 0x796 <circuit_init+0x14>
     7d2:	00 00       	nop
     7d4:	0f 90       	pop	r0
     7d6:	0f 90       	pop	r0
     7d8:	0f 90       	pop	r0
     7da:	0f 90       	pop	r0
     7dc:	0f 90       	pop	r0
     7de:	df 91       	pop	r29
     7e0:	cf 91       	pop	r28
     7e2:	08 95       	ret

000007e4 <circuit_do_flfp>:
     7e4:	cf 93       	push	r28
     7e6:	df 93       	push	r29
     7e8:	1f 92       	push	r1
     7ea:	cd b7       	in	r28, 0x3d	; 61
     7ec:	de b7       	in	r29, 0x3e	; 62
     7ee:	19 82       	std	Y+1, r1	; 0x01
     7f0:	fe c1       	rjmp	.+1020   	; 0xbee <__stack+0x2ef>
     7f2:	89 81       	ldd	r24, Y+1	; 0x01
     7f4:	88 23       	and	r24, r24
     7f6:	f1 f4       	brne	.+60     	; 0x834 <__DATA_REGION_LENGTH__+0x34>
     7f8:	80 91 20 01 	lds	r24, 0x0120	; 0x800120 <circuit+0x1d>
     7fc:	88 23       	and	r24, r24
     7fe:	39 f0       	breq	.+14     	; 0x80e <__DATA_REGION_LENGTH__+0xe>
     800:	80 91 1f 01 	lds	r24, 0x011F	; 0x80011f <circuit+0x1c>
     804:	88 23       	and	r24, r24
     806:	19 f0       	breq	.+6      	; 0x80e <__DATA_REGION_LENGTH__+0xe>
     808:	81 e0       	ldi	r24, 0x01	; 1
     80a:	90 e0       	ldi	r25, 0x00	; 0
     80c:	02 c0       	rjmp	.+4      	; 0x812 <__DATA_REGION_LENGTH__+0x12>
     80e:	80 e0       	ldi	r24, 0x00	; 0
     810:	90 e0       	ldi	r25, 0x00	; 0
     812:	48 2f       	mov	r20, r24
     814:	41 70       	andi	r20, 0x01	; 1
     816:	50 91 18 01 	lds	r21, 0x0118	; 0x800118 <circuit+0x15>
     81a:	89 81       	ldd	r24, Y+1	; 0x01
     81c:	28 2f       	mov	r18, r24
     81e:	30 e0       	ldi	r19, 0x00	; 0
     820:	c9 01       	movw	r24, r18
     822:	88 0f       	add	r24, r24
     824:	99 1f       	adc	r25, r25
     826:	82 0f       	add	r24, r18
     828:	93 1f       	adc	r25, r19
     82a:	8d 5f       	subi	r24, 0xFD	; 253
     82c:	9e 4f       	sbci	r25, 0xFE	; 254
     82e:	65 2f       	mov	r22, r21
     830:	0e 94 e8 06 	call	0xdd0	; 0xdd0 <logic_gates_do_flipflop>
     834:	89 81       	ldd	r24, Y+1	; 0x01
     836:	81 30       	cpi	r24, 0x01	; 1
     838:	09 f0       	breq	.+2      	; 0x83c <__DATA_REGION_LENGTH__+0x3c>
     83a:	7d c0       	rjmp	.+250    	; 0x936 <__stack+0x37>
     83c:	80 91 16 01 	lds	r24, 0x0116	; 0x800116 <circuit+0x13>
     840:	88 23       	and	r24, r24
     842:	39 f0       	breq	.+14     	; 0x852 <__DATA_REGION_LENGTH__+0x52>
     844:	80 91 19 01 	lds	r24, 0x0119	; 0x800119 <circuit+0x16>
     848:	88 23       	and	r24, r24
     84a:	19 f0       	breq	.+6      	; 0x852 <__DATA_REGION_LENGTH__+0x52>
     84c:	81 e0       	ldi	r24, 0x01	; 1
     84e:	90 e0       	ldi	r25, 0x00	; 0
     850:	02 c0       	rjmp	.+4      	; 0x856 <__DATA_REGION_LENGTH__+0x56>
     852:	80 e0       	ldi	r24, 0x00	; 0
     854:	90 e0       	ldi	r25, 0x00	; 0
     856:	81 70       	andi	r24, 0x01	; 1
     858:	99 27       	eor	r25, r25
     85a:	89 2b       	or	r24, r25
     85c:	09 f1       	breq	.+66     	; 0x8a0 <__DATA_REGION_LENGTH__+0xa0>
     85e:	80 91 14 01 	lds	r24, 0x0114	; 0x800114 <circuit+0x11>
     862:	88 23       	and	r24, r24
     864:	39 f0       	breq	.+14     	; 0x874 <__DATA_REGION_LENGTH__+0x74>
     866:	80 91 12 01 	lds	r24, 0x0112	; 0x800112 <circuit+0xf>
     86a:	88 23       	and	r24, r24
     86c:	19 f0       	breq	.+6      	; 0x874 <__DATA_REGION_LENGTH__+0x74>
     86e:	81 e0       	ldi	r24, 0x01	; 1
     870:	90 e0       	ldi	r25, 0x00	; 0
     872:	02 c0       	rjmp	.+4      	; 0x878 <__DATA_REGION_LENGTH__+0x78>
     874:	80 e0       	ldi	r24, 0x00	; 0
     876:	90 e0       	ldi	r25, 0x00	; 0
     878:	81 70       	andi	r24, 0x01	; 1
     87a:	99 27       	eor	r25, r25
     87c:	89 2b       	or	r24, r25
     87e:	39 f4       	brne	.+14     	; 0x88e <__DATA_REGION_LENGTH__+0x8e>
     880:	80 91 1a 01 	lds	r24, 0x011A	; 0x80011a <circuit+0x17>
     884:	88 23       	and	r24, r24
     886:	19 f0       	breq	.+6      	; 0x88e <__DATA_REGION_LENGTH__+0x8e>
     888:	81 e0       	ldi	r24, 0x01	; 1
     88a:	90 e0       	ldi	r25, 0x00	; 0
     88c:	02 c0       	rjmp	.+4      	; 0x892 <__DATA_REGION_LENGTH__+0x92>
     88e:	80 e0       	ldi	r24, 0x00	; 0
     890:	90 e0       	ldi	r25, 0x00	; 0
     892:	81 70       	andi	r24, 0x01	; 1
     894:	99 27       	eor	r25, r25
     896:	89 2b       	or	r24, r25
     898:	19 f0       	breq	.+6      	; 0x8a0 <__DATA_REGION_LENGTH__+0xa0>
     89a:	81 e0       	ldi	r24, 0x01	; 1
     89c:	90 e0       	ldi	r25, 0x00	; 0
     89e:	02 c0       	rjmp	.+4      	; 0x8a4 <__DATA_REGION_LENGTH__+0xa4>
     8a0:	80 e0       	ldi	r24, 0x00	; 0
     8a2:	90 e0       	ldi	r25, 0x00	; 0
     8a4:	48 2f       	mov	r20, r24
     8a6:	41 70       	andi	r20, 0x01	; 1
     8a8:	80 91 12 01 	lds	r24, 0x0112	; 0x800112 <circuit+0xf>
     8ac:	88 23       	and	r24, r24
     8ae:	c1 f0       	breq	.+48     	; 0x8e0 <__DATA_REGION_LENGTH__+0xe0>
     8b0:	90 91 17 01 	lds	r25, 0x0117	; 0x800117 <circuit+0x14>
     8b4:	81 e0       	ldi	r24, 0x01	; 1
     8b6:	89 27       	eor	r24, r25
     8b8:	88 23       	and	r24, r24
     8ba:	49 f0       	breq	.+18     	; 0x8ce <__DATA_REGION_LENGTH__+0xce>
     8bc:	90 91 14 01 	lds	r25, 0x0114	; 0x800114 <circuit+0x11>
     8c0:	81 e0       	ldi	r24, 0x01	; 1
     8c2:	89 27       	eor	r24, r25
     8c4:	88 23       	and	r24, r24
     8c6:	19 f0       	breq	.+6      	; 0x8ce <__DATA_REGION_LENGTH__+0xce>
     8c8:	81 e0       	ldi	r24, 0x01	; 1
     8ca:	90 e0       	ldi	r25, 0x00	; 0
     8cc:	02 c0       	rjmp	.+4      	; 0x8d2 <__DATA_REGION_LENGTH__+0xd2>
     8ce:	80 e0       	ldi	r24, 0x00	; 0
     8d0:	90 e0       	ldi	r25, 0x00	; 0
     8d2:	81 70       	andi	r24, 0x01	; 1
     8d4:	99 27       	eor	r25, r25
     8d6:	89 2b       	or	r24, r25
     8d8:	19 f0       	breq	.+6      	; 0x8e0 <__DATA_REGION_LENGTH__+0xe0>
     8da:	81 e0       	ldi	r24, 0x01	; 1
     8dc:	90 e0       	ldi	r25, 0x00	; 0
     8de:	02 c0       	rjmp	.+4      	; 0x8e4 <__DATA_REGION_LENGTH__+0xe4>
     8e0:	80 e0       	ldi	r24, 0x00	; 0
     8e2:	90 e0       	ldi	r25, 0x00	; 0
     8e4:	81 70       	andi	r24, 0x01	; 1
     8e6:	99 27       	eor	r25, r25
     8e8:	89 2b       	or	r24, r25
     8ea:	a1 f0       	breq	.+40     	; 0x914 <__stack+0x15>
     8ec:	80 91 15 01 	lds	r24, 0x0115	; 0x800115 <circuit+0x12>
     8f0:	88 23       	and	r24, r24
     8f2:	21 f4       	brne	.+8      	; 0x8fc <__DATA_REGION_LENGTH__+0xfc>
     8f4:	80 91 18 01 	lds	r24, 0x0118	; 0x800118 <circuit+0x15>
     8f8:	88 23       	and	r24, r24
     8fa:	19 f0       	breq	.+6      	; 0x902 <__stack+0x3>
     8fc:	81 e0       	ldi	r24, 0x01	; 1
     8fe:	90 e0       	ldi	r25, 0x00	; 0
     900:	02 c0       	rjmp	.+4      	; 0x906 <__stack+0x7>
     902:	80 e0       	ldi	r24, 0x00	; 0
     904:	90 e0       	ldi	r25, 0x00	; 0
     906:	81 70       	andi	r24, 0x01	; 1
     908:	99 27       	eor	r25, r25
     90a:	89 2b       	or	r24, r25
     90c:	19 f0       	breq	.+6      	; 0x914 <__stack+0x15>
     90e:	81 e0       	ldi	r24, 0x01	; 1
     910:	90 e0       	ldi	r25, 0x00	; 0
     912:	02 c0       	rjmp	.+4      	; 0x918 <__stack+0x19>
     914:	80 e0       	ldi	r24, 0x00	; 0
     916:	90 e0       	ldi	r25, 0x00	; 0
     918:	58 2f       	mov	r21, r24
     91a:	51 70       	andi	r21, 0x01	; 1
     91c:	89 81       	ldd	r24, Y+1	; 0x01
     91e:	28 2f       	mov	r18, r24
     920:	30 e0       	ldi	r19, 0x00	; 0
     922:	c9 01       	movw	r24, r18
     924:	88 0f       	add	r24, r24
     926:	99 1f       	adc	r25, r25
     928:	82 0f       	add	r24, r18
     92a:	93 1f       	adc	r25, r19
     92c:	8d 5f       	subi	r24, 0xFD	; 253
     92e:	9e 4f       	sbci	r25, 0xFE	; 254
     930:	65 2f       	mov	r22, r21
     932:	0e 94 e8 06 	call	0xdd0	; 0xdd0 <logic_gates_do_flipflop>
     936:	89 81       	ldd	r24, Y+1	; 0x01
     938:	82 30       	cpi	r24, 0x02	; 2
     93a:	09 f0       	breq	.+2      	; 0x93e <__stack+0x3f>
     93c:	6c c0       	rjmp	.+216    	; 0xa16 <__stack+0x117>
     93e:	80 91 14 01 	lds	r24, 0x0114	; 0x800114 <circuit+0x11>
     942:	88 23       	and	r24, r24
     944:	39 f0       	breq	.+14     	; 0x954 <__stack+0x55>
     946:	80 91 12 01 	lds	r24, 0x0112	; 0x800112 <circuit+0xf>
     94a:	88 23       	and	r24, r24
     94c:	19 f0       	breq	.+6      	; 0x954 <__stack+0x55>
     94e:	81 e0       	ldi	r24, 0x01	; 1
     950:	90 e0       	ldi	r25, 0x00	; 0
     952:	02 c0       	rjmp	.+4      	; 0x958 <__stack+0x59>
     954:	80 e0       	ldi	r24, 0x00	; 0
     956:	90 e0       	ldi	r25, 0x00	; 0
     958:	81 70       	andi	r24, 0x01	; 1
     95a:	99 27       	eor	r25, r25
     95c:	89 2b       	or	r24, r25
     95e:	39 f4       	brne	.+14     	; 0x96e <__stack+0x6f>
     960:	80 91 1a 01 	lds	r24, 0x011A	; 0x80011a <circuit+0x17>
     964:	88 23       	and	r24, r24
     966:	19 f0       	breq	.+6      	; 0x96e <__stack+0x6f>
     968:	81 e0       	ldi	r24, 0x01	; 1
     96a:	90 e0       	ldi	r25, 0x00	; 0
     96c:	02 c0       	rjmp	.+4      	; 0x972 <__stack+0x73>
     96e:	80 e0       	ldi	r24, 0x00	; 0
     970:	90 e0       	ldi	r25, 0x00	; 0
     972:	81 70       	andi	r24, 0x01	; 1
     974:	99 27       	eor	r25, r25
     976:	89 2b       	or	r24, r25
     978:	39 f0       	breq	.+14     	; 0x988 <__stack+0x89>
     97a:	80 91 19 01 	lds	r24, 0x0119	; 0x800119 <circuit+0x16>
     97e:	88 23       	and	r24, r24
     980:	19 f0       	breq	.+6      	; 0x988 <__stack+0x89>
     982:	81 e0       	ldi	r24, 0x01	; 1
     984:	90 e0       	ldi	r25, 0x00	; 0
     986:	02 c0       	rjmp	.+4      	; 0x98c <__stack+0x8d>
     988:	80 e0       	ldi	r24, 0x00	; 0
     98a:	90 e0       	ldi	r25, 0x00	; 0
     98c:	48 2f       	mov	r20, r24
     98e:	41 70       	andi	r20, 0x01	; 1
     990:	80 91 16 01 	lds	r24, 0x0116	; 0x800116 <circuit+0x13>
     994:	88 23       	and	r24, r24
     996:	39 f0       	breq	.+14     	; 0x9a6 <__stack+0xa7>
     998:	80 91 19 01 	lds	r24, 0x0119	; 0x800119 <circuit+0x16>
     99c:	88 23       	and	r24, r24
     99e:	19 f0       	breq	.+6      	; 0x9a6 <__stack+0xa7>
     9a0:	81 e0       	ldi	r24, 0x01	; 1
     9a2:	90 e0       	ldi	r25, 0x00	; 0
     9a4:	02 c0       	rjmp	.+4      	; 0x9aa <__stack+0xab>
     9a6:	80 e0       	ldi	r24, 0x00	; 0
     9a8:	90 e0       	ldi	r25, 0x00	; 0
     9aa:	81 70       	andi	r24, 0x01	; 1
     9ac:	99 27       	eor	r25, r25
     9ae:	89 2b       	or	r24, r25
     9b0:	09 f1       	breq	.+66     	; 0x9f4 <__stack+0xf5>
     9b2:	80 91 15 01 	lds	r24, 0x0115	; 0x800115 <circuit+0x12>
     9b6:	88 23       	and	r24, r24
     9b8:	21 f4       	brne	.+8      	; 0x9c2 <__stack+0xc3>
     9ba:	80 91 18 01 	lds	r24, 0x0118	; 0x800118 <circuit+0x15>
     9be:	88 23       	and	r24, r24
     9c0:	19 f0       	breq	.+6      	; 0x9c8 <__stack+0xc9>
     9c2:	81 e0       	ldi	r24, 0x01	; 1
     9c4:	90 e0       	ldi	r25, 0x00	; 0
     9c6:	02 c0       	rjmp	.+4      	; 0x9cc <__stack+0xcd>
     9c8:	80 e0       	ldi	r24, 0x00	; 0
     9ca:	90 e0       	ldi	r25, 0x00	; 0
     9cc:	81 70       	andi	r24, 0x01	; 1
     9ce:	99 27       	eor	r25, r25
     9d0:	89 2b       	or	r24, r25
     9d2:	39 f0       	breq	.+14     	; 0x9e2 <__stack+0xe3>
     9d4:	80 91 16 01 	lds	r24, 0x0116	; 0x800116 <circuit+0x13>
     9d8:	88 23       	and	r24, r24
     9da:	19 f0       	breq	.+6      	; 0x9e2 <__stack+0xe3>
     9dc:	81 e0       	ldi	r24, 0x01	; 1
     9de:	90 e0       	ldi	r25, 0x00	; 0
     9e0:	02 c0       	rjmp	.+4      	; 0x9e6 <__stack+0xe7>
     9e2:	80 e0       	ldi	r24, 0x00	; 0
     9e4:	90 e0       	ldi	r25, 0x00	; 0
     9e6:	81 70       	andi	r24, 0x01	; 1
     9e8:	99 27       	eor	r25, r25
     9ea:	89 2b       	or	r24, r25
     9ec:	19 f0       	breq	.+6      	; 0x9f4 <__stack+0xf5>
     9ee:	81 e0       	ldi	r24, 0x01	; 1
     9f0:	90 e0       	ldi	r25, 0x00	; 0
     9f2:	02 c0       	rjmp	.+4      	; 0x9f8 <__stack+0xf9>
     9f4:	80 e0       	ldi	r24, 0x00	; 0
     9f6:	90 e0       	ldi	r25, 0x00	; 0
     9f8:	58 2f       	mov	r21, r24
     9fa:	51 70       	andi	r21, 0x01	; 1
     9fc:	89 81       	ldd	r24, Y+1	; 0x01
     9fe:	28 2f       	mov	r18, r24
     a00:	30 e0       	ldi	r19, 0x00	; 0
     a02:	c9 01       	movw	r24, r18
     a04:	88 0f       	add	r24, r24
     a06:	99 1f       	adc	r25, r25
     a08:	82 0f       	add	r24, r18
     a0a:	93 1f       	adc	r25, r19
     a0c:	8d 5f       	subi	r24, 0xFD	; 253
     a0e:	9e 4f       	sbci	r25, 0xFE	; 254
     a10:	65 2f       	mov	r22, r21
     a12:	0e 94 e8 06 	call	0xdd0	; 0xdd0 <logic_gates_do_flipflop>
     a16:	89 81       	ldd	r24, Y+1	; 0x01
     a18:	83 30       	cpi	r24, 0x03	; 3
     a1a:	09 f0       	breq	.+2      	; 0xa1e <__stack+0x11f>
     a1c:	7d c0       	rjmp	.+250    	; 0xb18 <__stack+0x219>
     a1e:	80 91 15 01 	lds	r24, 0x0115	; 0x800115 <circuit+0x12>
     a22:	88 23       	and	r24, r24
     a24:	21 f4       	brne	.+8      	; 0xa2e <__stack+0x12f>
     a26:	80 91 18 01 	lds	r24, 0x0118	; 0x800118 <circuit+0x15>
     a2a:	88 23       	and	r24, r24
     a2c:	19 f0       	breq	.+6      	; 0xa34 <__stack+0x135>
     a2e:	81 e0       	ldi	r24, 0x01	; 1
     a30:	90 e0       	ldi	r25, 0x00	; 0
     a32:	02 c0       	rjmp	.+4      	; 0xa38 <__stack+0x139>
     a34:	80 e0       	ldi	r24, 0x00	; 0
     a36:	90 e0       	ldi	r25, 0x00	; 0
     a38:	81 70       	andi	r24, 0x01	; 1
     a3a:	99 27       	eor	r25, r25
     a3c:	89 2b       	or	r24, r25
     a3e:	09 f1       	breq	.+66     	; 0xa82 <__stack+0x183>
     a40:	80 91 14 01 	lds	r24, 0x0114	; 0x800114 <circuit+0x11>
     a44:	88 23       	and	r24, r24
     a46:	39 f0       	breq	.+14     	; 0xa56 <__stack+0x157>
     a48:	80 91 12 01 	lds	r24, 0x0112	; 0x800112 <circuit+0xf>
     a4c:	88 23       	and	r24, r24
     a4e:	19 f0       	breq	.+6      	; 0xa56 <__stack+0x157>
     a50:	81 e0       	ldi	r24, 0x01	; 1
     a52:	90 e0       	ldi	r25, 0x00	; 0
     a54:	02 c0       	rjmp	.+4      	; 0xa5a <__stack+0x15b>
     a56:	80 e0       	ldi	r24, 0x00	; 0
     a58:	90 e0       	ldi	r25, 0x00	; 0
     a5a:	81 70       	andi	r24, 0x01	; 1
     a5c:	99 27       	eor	r25, r25
     a5e:	89 2b       	or	r24, r25
     a60:	39 f4       	brne	.+14     	; 0xa70 <__stack+0x171>
     a62:	80 91 1a 01 	lds	r24, 0x011A	; 0x80011a <circuit+0x17>
     a66:	88 23       	and	r24, r24
     a68:	19 f0       	breq	.+6      	; 0xa70 <__stack+0x171>
     a6a:	81 e0       	ldi	r24, 0x01	; 1
     a6c:	90 e0       	ldi	r25, 0x00	; 0
     a6e:	02 c0       	rjmp	.+4      	; 0xa74 <__stack+0x175>
     a70:	80 e0       	ldi	r24, 0x00	; 0
     a72:	90 e0       	ldi	r25, 0x00	; 0
     a74:	81 70       	andi	r24, 0x01	; 1
     a76:	99 27       	eor	r25, r25
     a78:	89 2b       	or	r24, r25
     a7a:	19 f0       	breq	.+6      	; 0xa82 <__stack+0x183>
     a7c:	81 e0       	ldi	r24, 0x01	; 1
     a7e:	90 e0       	ldi	r25, 0x00	; 0
     a80:	02 c0       	rjmp	.+4      	; 0xa86 <__stack+0x187>
     a82:	80 e0       	ldi	r24, 0x00	; 0
     a84:	90 e0       	ldi	r25, 0x00	; 0
     a86:	48 2f       	mov	r20, r24
     a88:	41 70       	andi	r20, 0x01	; 1
     a8a:	80 91 16 01 	lds	r24, 0x0116	; 0x800116 <circuit+0x13>
     a8e:	88 23       	and	r24, r24
     a90:	39 f0       	breq	.+14     	; 0xaa0 <__stack+0x1a1>
     a92:	80 91 19 01 	lds	r24, 0x0119	; 0x800119 <circuit+0x16>
     a96:	88 23       	and	r24, r24
     a98:	19 f0       	breq	.+6      	; 0xaa0 <__stack+0x1a1>
     a9a:	81 e0       	ldi	r24, 0x01	; 1
     a9c:	90 e0       	ldi	r25, 0x00	; 0
     a9e:	02 c0       	rjmp	.+4      	; 0xaa4 <__stack+0x1a5>
     aa0:	80 e0       	ldi	r24, 0x00	; 0
     aa2:	90 e0       	ldi	r25, 0x00	; 0
     aa4:	81 70       	andi	r24, 0x01	; 1
     aa6:	99 27       	eor	r25, r25
     aa8:	89 2b       	or	r24, r25
     aaa:	29 f1       	breq	.+74     	; 0xaf6 <__stack+0x1f7>
     aac:	80 91 12 01 	lds	r24, 0x0112	; 0x800112 <circuit+0xf>
     ab0:	88 23       	and	r24, r24
     ab2:	c1 f0       	breq	.+48     	; 0xae4 <__stack+0x1e5>
     ab4:	90 91 17 01 	lds	r25, 0x0117	; 0x800117 <circuit+0x14>
     ab8:	81 e0       	ldi	r24, 0x01	; 1
     aba:	89 27       	eor	r24, r25
     abc:	88 23       	and	r24, r24
     abe:	49 f0       	breq	.+18     	; 0xad2 <__stack+0x1d3>
     ac0:	90 91 14 01 	lds	r25, 0x0114	; 0x800114 <circuit+0x11>
     ac4:	81 e0       	ldi	r24, 0x01	; 1
     ac6:	89 27       	eor	r24, r25
     ac8:	88 23       	and	r24, r24
     aca:	19 f0       	breq	.+6      	; 0xad2 <__stack+0x1d3>
     acc:	81 e0       	ldi	r24, 0x01	; 1
     ace:	90 e0       	ldi	r25, 0x00	; 0
     ad0:	02 c0       	rjmp	.+4      	; 0xad6 <__stack+0x1d7>
     ad2:	80 e0       	ldi	r24, 0x00	; 0
     ad4:	90 e0       	ldi	r25, 0x00	; 0
     ad6:	81 70       	andi	r24, 0x01	; 1
     ad8:	99 27       	eor	r25, r25
     ada:	89 2b       	or	r24, r25
     adc:	19 f0       	breq	.+6      	; 0xae4 <__stack+0x1e5>
     ade:	81 e0       	ldi	r24, 0x01	; 1
     ae0:	90 e0       	ldi	r25, 0x00	; 0
     ae2:	02 c0       	rjmp	.+4      	; 0xae8 <__stack+0x1e9>
     ae4:	80 e0       	ldi	r24, 0x00	; 0
     ae6:	90 e0       	ldi	r25, 0x00	; 0
     ae8:	81 70       	andi	r24, 0x01	; 1
     aea:	99 27       	eor	r25, r25
     aec:	89 2b       	or	r24, r25
     aee:	19 f0       	breq	.+6      	; 0xaf6 <__stack+0x1f7>
     af0:	81 e0       	ldi	r24, 0x01	; 1
     af2:	90 e0       	ldi	r25, 0x00	; 0
     af4:	02 c0       	rjmp	.+4      	; 0xafa <__stack+0x1fb>
     af6:	80 e0       	ldi	r24, 0x00	; 0
     af8:	90 e0       	ldi	r25, 0x00	; 0
     afa:	58 2f       	mov	r21, r24
     afc:	51 70       	andi	r21, 0x01	; 1
     afe:	89 81       	ldd	r24, Y+1	; 0x01
     b00:	28 2f       	mov	r18, r24
     b02:	30 e0       	ldi	r19, 0x00	; 0
     b04:	c9 01       	movw	r24, r18
     b06:	88 0f       	add	r24, r24
     b08:	99 1f       	adc	r25, r25
     b0a:	82 0f       	add	r24, r18
     b0c:	93 1f       	adc	r25, r19
     b0e:	8d 5f       	subi	r24, 0xFD	; 253
     b10:	9e 4f       	sbci	r25, 0xFE	; 254
     b12:	65 2f       	mov	r22, r21
     b14:	0e 94 e8 06 	call	0xdd0	; 0xdd0 <logic_gates_do_flipflop>
     b18:	89 81       	ldd	r24, Y+1	; 0x01
     b1a:	84 30       	cpi	r24, 0x04	; 4
     b1c:	09 f0       	breq	.+2      	; 0xb20 <__stack+0x221>
     b1e:	64 c0       	rjmp	.+200    	; 0xbe8 <__stack+0x2e9>
     b20:	40 91 13 01 	lds	r20, 0x0113	; 0x800113 <circuit+0x10>
     b24:	80 91 15 01 	lds	r24, 0x0115	; 0x800115 <circuit+0x12>
     b28:	88 23       	and	r24, r24
     b2a:	21 f4       	brne	.+8      	; 0xb34 <__stack+0x235>
     b2c:	80 91 18 01 	lds	r24, 0x0118	; 0x800118 <circuit+0x15>
     b30:	88 23       	and	r24, r24
     b32:	19 f0       	breq	.+6      	; 0xb3a <__stack+0x23b>
     b34:	81 e0       	ldi	r24, 0x01	; 1
     b36:	90 e0       	ldi	r25, 0x00	; 0
     b38:	02 c0       	rjmp	.+4      	; 0xb3e <__stack+0x23f>
     b3a:	80 e0       	ldi	r24, 0x00	; 0
     b3c:	90 e0       	ldi	r25, 0x00	; 0
     b3e:	81 70       	andi	r24, 0x01	; 1
     b40:	99 27       	eor	r25, r25
     b42:	89 2b       	or	r24, r25
     b44:	09 f4       	brne	.+2      	; 0xb48 <__stack+0x249>
     b46:	3f c0       	rjmp	.+126    	; 0xbc6 <__stack+0x2c7>
     b48:	80 91 12 01 	lds	r24, 0x0112	; 0x800112 <circuit+0xf>
     b4c:	88 23       	and	r24, r24
     b4e:	c1 f0       	breq	.+48     	; 0xb80 <__stack+0x281>
     b50:	90 91 17 01 	lds	r25, 0x0117	; 0x800117 <circuit+0x14>
     b54:	81 e0       	ldi	r24, 0x01	; 1
     b56:	89 27       	eor	r24, r25
     b58:	88 23       	and	r24, r24
     b5a:	49 f0       	breq	.+18     	; 0xb6e <__stack+0x26f>
     b5c:	90 91 14 01 	lds	r25, 0x0114	; 0x800114 <circuit+0x11>
     b60:	81 e0       	ldi	r24, 0x01	; 1
     b62:	89 27       	eor	r24, r25
     b64:	88 23       	and	r24, r24
     b66:	19 f0       	breq	.+6      	; 0xb6e <__stack+0x26f>
     b68:	81 e0       	ldi	r24, 0x01	; 1
     b6a:	90 e0       	ldi	r25, 0x00	; 0
     b6c:	02 c0       	rjmp	.+4      	; 0xb72 <__stack+0x273>
     b6e:	80 e0       	ldi	r24, 0x00	; 0
     b70:	90 e0       	ldi	r25, 0x00	; 0
     b72:	81 70       	andi	r24, 0x01	; 1
     b74:	99 27       	eor	r25, r25
     b76:	89 2b       	or	r24, r25
     b78:	19 f0       	breq	.+6      	; 0xb80 <__stack+0x281>
     b7a:	81 e0       	ldi	r24, 0x01	; 1
     b7c:	90 e0       	ldi	r25, 0x00	; 0
     b7e:	02 c0       	rjmp	.+4      	; 0xb84 <__stack+0x285>
     b80:	80 e0       	ldi	r24, 0x00	; 0
     b82:	90 e0       	ldi	r25, 0x00	; 0
     b84:	81 70       	andi	r24, 0x01	; 1
     b86:	99 27       	eor	r25, r25
     b88:	89 2b       	or	r24, r25
     b8a:	a1 f0       	breq	.+40     	; 0xbb4 <__stack+0x2b5>
     b8c:	80 91 16 01 	lds	r24, 0x0116	; 0x800116 <circuit+0x13>
     b90:	88 23       	and	r24, r24
     b92:	39 f0       	breq	.+14     	; 0xba2 <__stack+0x2a3>
     b94:	80 91 19 01 	lds	r24, 0x0119	; 0x800119 <circuit+0x16>
     b98:	88 23       	and	r24, r24
     b9a:	19 f0       	breq	.+6      	; 0xba2 <__stack+0x2a3>
     b9c:	81 e0       	ldi	r24, 0x01	; 1
     b9e:	90 e0       	ldi	r25, 0x00	; 0
     ba0:	02 c0       	rjmp	.+4      	; 0xba6 <__stack+0x2a7>
     ba2:	80 e0       	ldi	r24, 0x00	; 0
     ba4:	90 e0       	ldi	r25, 0x00	; 0
     ba6:	81 70       	andi	r24, 0x01	; 1
     ba8:	99 27       	eor	r25, r25
     baa:	89 2b       	or	r24, r25
     bac:	19 f0       	breq	.+6      	; 0xbb4 <__stack+0x2b5>
     bae:	81 e0       	ldi	r24, 0x01	; 1
     bb0:	90 e0       	ldi	r25, 0x00	; 0
     bb2:	02 c0       	rjmp	.+4      	; 0xbb8 <__stack+0x2b9>
     bb4:	80 e0       	ldi	r24, 0x00	; 0
     bb6:	90 e0       	ldi	r25, 0x00	; 0
     bb8:	81 70       	andi	r24, 0x01	; 1
     bba:	99 27       	eor	r25, r25
     bbc:	89 2b       	or	r24, r25
     bbe:	19 f0       	breq	.+6      	; 0xbc6 <__stack+0x2c7>
     bc0:	81 e0       	ldi	r24, 0x01	; 1
     bc2:	90 e0       	ldi	r25, 0x00	; 0
     bc4:	02 c0       	rjmp	.+4      	; 0xbca <__stack+0x2cb>
     bc6:	80 e0       	ldi	r24, 0x00	; 0
     bc8:	90 e0       	ldi	r25, 0x00	; 0
     bca:	58 2f       	mov	r21, r24
     bcc:	51 70       	andi	r21, 0x01	; 1
     bce:	89 81       	ldd	r24, Y+1	; 0x01
     bd0:	28 2f       	mov	r18, r24
     bd2:	30 e0       	ldi	r19, 0x00	; 0
     bd4:	c9 01       	movw	r24, r18
     bd6:	88 0f       	add	r24, r24
     bd8:	99 1f       	adc	r25, r25
     bda:	82 0f       	add	r24, r18
     bdc:	93 1f       	adc	r25, r19
     bde:	8d 5f       	subi	r24, 0xFD	; 253
     be0:	9e 4f       	sbci	r25, 0xFE	; 254
     be2:	65 2f       	mov	r22, r21
     be4:	0e 94 e8 06 	call	0xdd0	; 0xdd0 <logic_gates_do_flipflop>
     be8:	89 81       	ldd	r24, Y+1	; 0x01
     bea:	8f 5f       	subi	r24, 0xFF	; 255
     bec:	89 83       	std	Y+1, r24	; 0x01
     bee:	89 81       	ldd	r24, Y+1	; 0x01
     bf0:	85 30       	cpi	r24, 0x05	; 5
     bf2:	08 f4       	brcc	.+2      	; 0xbf6 <__stack+0x2f7>
     bf4:	fe cd       	rjmp	.-1028   	; 0x7f2 <circuit_do_flfp+0xe>
     bf6:	00 00       	nop
     bf8:	0f 90       	pop	r0
     bfa:	df 91       	pop	r29
     bfc:	cf 91       	pop	r28
     bfe:	08 95       	ret

00000c00 <circuit_do_outputs>:
     c00:	cf 93       	push	r28
     c02:	df 93       	push	r29
     c04:	1f 92       	push	r1
     c06:	cd b7       	in	r28, 0x3d	; 61
     c08:	de b7       	in	r29, 0x3e	; 62
     c0a:	19 82       	std	Y+1, r1	; 0x01
     c0c:	b0 c0       	rjmp	.+352    	; 0xd6e <circuit_do_outputs+0x16e>
     c0e:	89 81       	ldd	r24, Y+1	; 0x01
     c10:	88 23       	and	r24, r24
     c12:	59 f4       	brne	.+22     	; 0xc2a <circuit_do_outputs+0x2a>
     c14:	89 81       	ldd	r24, Y+1	; 0x01
     c16:	88 2f       	mov	r24, r24
     c18:	90 e0       	ldi	r25, 0x00	; 0
     c1a:	30 91 18 01 	lds	r19, 0x0118	; 0x800118 <circuit+0x15>
     c1e:	21 e0       	ldi	r18, 0x01	; 1
     c20:	23 27       	eor	r18, r19
     c22:	84 5e       	subi	r24, 0xE4	; 228
     c24:	9e 4f       	sbci	r25, 0xFE	; 254
     c26:	fc 01       	movw	r30, r24
     c28:	20 83       	st	Z, r18
     c2a:	89 81       	ldd	r24, Y+1	; 0x01
     c2c:	81 30       	cpi	r24, 0x01	; 1
     c2e:	21 f5       	brne	.+72     	; 0xc78 <circuit_do_outputs+0x78>
     c30:	89 81       	ldd	r24, Y+1	; 0x01
     c32:	28 2f       	mov	r18, r24
     c34:	30 e0       	ldi	r19, 0x00	; 0
     c36:	80 91 05 01 	lds	r24, 0x0105	; 0x800105 <circuit+0x2>
     c3a:	88 23       	and	r24, r24
     c3c:	a1 f0       	breq	.+40     	; 0xc66 <circuit_do_outputs+0x66>
     c3e:	80 91 1f 01 	lds	r24, 0x011F	; 0x80011f <circuit+0x1c>
     c42:	88 23       	and	r24, r24
     c44:	39 f0       	breq	.+14     	; 0xc54 <circuit_do_outputs+0x54>
     c46:	80 91 20 01 	lds	r24, 0x0120	; 0x800120 <circuit+0x1d>
     c4a:	88 23       	and	r24, r24
     c4c:	19 f0       	breq	.+6      	; 0xc54 <circuit_do_outputs+0x54>
     c4e:	81 e0       	ldi	r24, 0x01	; 1
     c50:	90 e0       	ldi	r25, 0x00	; 0
     c52:	02 c0       	rjmp	.+4      	; 0xc58 <circuit_do_outputs+0x58>
     c54:	80 e0       	ldi	r24, 0x00	; 0
     c56:	90 e0       	ldi	r25, 0x00	; 0
     c58:	81 70       	andi	r24, 0x01	; 1
     c5a:	99 27       	eor	r25, r25
     c5c:	89 2b       	or	r24, r25
     c5e:	19 f0       	breq	.+6      	; 0xc66 <circuit_do_outputs+0x66>
     c60:	81 e0       	ldi	r24, 0x01	; 1
     c62:	90 e0       	ldi	r25, 0x00	; 0
     c64:	02 c0       	rjmp	.+4      	; 0xc6a <circuit_do_outputs+0x6a>
     c66:	80 e0       	ldi	r24, 0x00	; 0
     c68:	90 e0       	ldi	r25, 0x00	; 0
     c6a:	48 2f       	mov	r20, r24
     c6c:	41 70       	andi	r20, 0x01	; 1
     c6e:	c9 01       	movw	r24, r18
     c70:	84 5e       	subi	r24, 0xE4	; 228
     c72:	9e 4f       	sbci	r25, 0xFE	; 254
     c74:	fc 01       	movw	r30, r24
     c76:	40 83       	st	Z, r20
     c78:	89 81       	ldd	r24, Y+1	; 0x01
     c7a:	82 30       	cpi	r24, 0x02	; 2
     c7c:	49 f4       	brne	.+18     	; 0xc90 <circuit_do_outputs+0x90>
     c7e:	89 81       	ldd	r24, Y+1	; 0x01
     c80:	88 2f       	mov	r24, r24
     c82:	90 e0       	ldi	r25, 0x00	; 0
     c84:	20 91 08 01 	lds	r18, 0x0108	; 0x800108 <circuit+0x5>
     c88:	84 5e       	subi	r24, 0xE4	; 228
     c8a:	9e 4f       	sbci	r25, 0xFE	; 254
     c8c:	fc 01       	movw	r30, r24
     c8e:	20 83       	st	Z, r18
     c90:	89 81       	ldd	r24, Y+1	; 0x01
     c92:	83 30       	cpi	r24, 0x03	; 3
     c94:	49 f4       	brne	.+18     	; 0xca8 <circuit_do_outputs+0xa8>
     c96:	89 81       	ldd	r24, Y+1	; 0x01
     c98:	88 2f       	mov	r24, r24
     c9a:	90 e0       	ldi	r25, 0x00	; 0
     c9c:	20 91 0b 01 	lds	r18, 0x010B	; 0x80010b <circuit+0x8>
     ca0:	84 5e       	subi	r24, 0xE4	; 228
     ca2:	9e 4f       	sbci	r25, 0xFE	; 254
     ca4:	fc 01       	movw	r30, r24
     ca6:	20 83       	st	Z, r18
     ca8:	89 81       	ldd	r24, Y+1	; 0x01
     caa:	84 30       	cpi	r24, 0x04	; 4
     cac:	49 f4       	brne	.+18     	; 0xcc0 <circuit_do_outputs+0xc0>
     cae:	89 81       	ldd	r24, Y+1	; 0x01
     cb0:	88 2f       	mov	r24, r24
     cb2:	90 e0       	ldi	r25, 0x00	; 0
     cb4:	20 91 0e 01 	lds	r18, 0x010E	; 0x80010e <circuit+0xb>
     cb8:	84 5e       	subi	r24, 0xE4	; 228
     cba:	9e 4f       	sbci	r25, 0xFE	; 254
     cbc:	fc 01       	movw	r30, r24
     cbe:	20 83       	st	Z, r18
     cc0:	89 81       	ldd	r24, Y+1	; 0x01
     cc2:	86 30       	cpi	r24, 0x06	; 6
     cc4:	49 f4       	brne	.+18     	; 0xcd8 <circuit_do_outputs+0xd8>
     cc6:	89 81       	ldd	r24, Y+1	; 0x01
     cc8:	88 2f       	mov	r24, r24
     cca:	90 e0       	ldi	r25, 0x00	; 0
     ccc:	20 91 15 01 	lds	r18, 0x0115	; 0x800115 <circuit+0x12>
     cd0:	84 5e       	subi	r24, 0xE4	; 228
     cd2:	9e 4f       	sbci	r25, 0xFE	; 254
     cd4:	fc 01       	movw	r30, r24
     cd6:	20 83       	st	Z, r18
     cd8:	89 81       	ldd	r24, Y+1	; 0x01
     cda:	87 30       	cpi	r24, 0x07	; 7
     cdc:	49 f4       	brne	.+18     	; 0xcf0 <circuit_do_outputs+0xf0>
     cde:	89 81       	ldd	r24, Y+1	; 0x01
     ce0:	88 2f       	mov	r24, r24
     ce2:	90 e0       	ldi	r25, 0x00	; 0
     ce4:	20 91 11 01 	lds	r18, 0x0111	; 0x800111 <circuit+0xe>
     ce8:	84 5e       	subi	r24, 0xE4	; 228
     cea:	9e 4f       	sbci	r25, 0xFE	; 254
     cec:	fc 01       	movw	r30, r24
     cee:	20 83       	st	Z, r18
     cf0:	89 81       	ldd	r24, Y+1	; 0x01
     cf2:	88 30       	cpi	r24, 0x08	; 8
     cf4:	39 f4       	brne	.+14     	; 0xd04 <circuit_do_outputs+0x104>
     cf6:	89 81       	ldd	r24, Y+1	; 0x01
     cf8:	88 2f       	mov	r24, r24
     cfa:	90 e0       	ldi	r25, 0x00	; 0
     cfc:	84 5e       	subi	r24, 0xE4	; 228
     cfe:	9e 4f       	sbci	r25, 0xFE	; 254
     d00:	fc 01       	movw	r30, r24
     d02:	10 82       	st	Z, r1
     d04:	89 81       	ldd	r24, Y+1	; 0x01
     d06:	89 30       	cpi	r24, 0x09	; 9
     d08:	39 f4       	brne	.+14     	; 0xd18 <circuit_do_outputs+0x118>
     d0a:	89 81       	ldd	r24, Y+1	; 0x01
     d0c:	88 2f       	mov	r24, r24
     d0e:	90 e0       	ldi	r25, 0x00	; 0
     d10:	84 5e       	subi	r24, 0xE4	; 228
     d12:	9e 4f       	sbci	r25, 0xFE	; 254
     d14:	fc 01       	movw	r30, r24
     d16:	10 82       	st	Z, r1
     d18:	89 81       	ldd	r24, Y+1	; 0x01
     d1a:	8a 30       	cpi	r24, 0x0A	; 10
     d1c:	39 f4       	brne	.+14     	; 0xd2c <circuit_do_outputs+0x12c>
     d1e:	89 81       	ldd	r24, Y+1	; 0x01
     d20:	88 2f       	mov	r24, r24
     d22:	90 e0       	ldi	r25, 0x00	; 0
     d24:	84 5e       	subi	r24, 0xE4	; 228
     d26:	9e 4f       	sbci	r25, 0xFE	; 254
     d28:	fc 01       	movw	r30, r24
     d2a:	10 82       	st	Z, r1
     d2c:	89 81       	ldd	r24, Y+1	; 0x01
     d2e:	8b 30       	cpi	r24, 0x0B	; 11
     d30:	39 f4       	brne	.+14     	; 0xd40 <circuit_do_outputs+0x140>
     d32:	89 81       	ldd	r24, Y+1	; 0x01
     d34:	88 2f       	mov	r24, r24
     d36:	90 e0       	ldi	r25, 0x00	; 0
     d38:	84 5e       	subi	r24, 0xE4	; 228
     d3a:	9e 4f       	sbci	r25, 0xFE	; 254
     d3c:	fc 01       	movw	r30, r24
     d3e:	10 82       	st	Z, r1
     d40:	89 81       	ldd	r24, Y+1	; 0x01
     d42:	8c 30       	cpi	r24, 0x0C	; 12
     d44:	39 f4       	brne	.+14     	; 0xd54 <circuit_do_outputs+0x154>
     d46:	89 81       	ldd	r24, Y+1	; 0x01
     d48:	88 2f       	mov	r24, r24
     d4a:	90 e0       	ldi	r25, 0x00	; 0
     d4c:	84 5e       	subi	r24, 0xE4	; 228
     d4e:	9e 4f       	sbci	r25, 0xFE	; 254
     d50:	fc 01       	movw	r30, r24
     d52:	10 82       	st	Z, r1
     d54:	89 81       	ldd	r24, Y+1	; 0x01
     d56:	8d 30       	cpi	r24, 0x0D	; 13
     d58:	39 f4       	brne	.+14     	; 0xd68 <circuit_do_outputs+0x168>
     d5a:	89 81       	ldd	r24, Y+1	; 0x01
     d5c:	88 2f       	mov	r24, r24
     d5e:	90 e0       	ldi	r25, 0x00	; 0
     d60:	84 5e       	subi	r24, 0xE4	; 228
     d62:	9e 4f       	sbci	r25, 0xFE	; 254
     d64:	fc 01       	movw	r30, r24
     d66:	10 82       	st	Z, r1
     d68:	89 81       	ldd	r24, Y+1	; 0x01
     d6a:	8f 5f       	subi	r24, 0xFF	; 255
     d6c:	89 83       	std	Y+1, r24	; 0x01
     d6e:	89 81       	ldd	r24, Y+1	; 0x01
     d70:	8e 30       	cpi	r24, 0x0E	; 14
     d72:	08 f4       	brcc	.+2      	; 0xd76 <circuit_do_outputs+0x176>
     d74:	4c cf       	rjmp	.-360    	; 0xc0e <circuit_do_outputs+0xe>
     d76:	00 00       	nop
     d78:	0f 90       	pop	r0
     d7a:	df 91       	pop	r29
     d7c:	cf 91       	pop	r28
     d7e:	08 95       	ret

00000d80 <circuit_update>:
     d80:	cf 93       	push	r28
     d82:	df 93       	push	r29
     d84:	cd b7       	in	r28, 0x3d	; 61
     d86:	de b7       	in	r29, 0x3e	; 62
     d88:	0e 94 f2 03 	call	0x7e4	; 0x7e4 <circuit_do_flfp>
     d8c:	0e 94 00 06 	call	0xc00	; 0xc00 <circuit_do_outputs>
     d90:	00 00       	nop
     d92:	df 91       	pop	r29
     d94:	cf 91       	pop	r28
     d96:	08 95       	ret

00000d98 <logic_gates_make_flipflop>:
     d98:	cf 93       	push	r28
     d9a:	df 93       	push	r29
     d9c:	00 d0       	rcall	.+0      	; 0xd9e <logic_gates_make_flipflop+0x6>
     d9e:	cd b7       	in	r28, 0x3d	; 61
     da0:	de b7       	in	r29, 0x3e	; 62
     da2:	9a 83       	std	Y+2, r25	; 0x02
     da4:	89 83       	std	Y+1, r24	; 0x01
     da6:	89 81       	ldd	r24, Y+1	; 0x01
     da8:	9a 81       	ldd	r25, Y+2	; 0x02
     daa:	21 e0       	ldi	r18, 0x01	; 1
     dac:	fc 01       	movw	r30, r24
     dae:	20 83       	st	Z, r18
     db0:	89 81       	ldd	r24, Y+1	; 0x01
     db2:	9a 81       	ldd	r25, Y+2	; 0x02
     db4:	21 e0       	ldi	r18, 0x01	; 1
     db6:	fc 01       	movw	r30, r24
     db8:	21 83       	std	Z+1, r18	; 0x01
     dba:	89 81       	ldd	r24, Y+1	; 0x01
     dbc:	9a 81       	ldd	r25, Y+2	; 0x02
     dbe:	21 e0       	ldi	r18, 0x01	; 1
     dc0:	fc 01       	movw	r30, r24
     dc2:	22 83       	std	Z+2, r18	; 0x02
     dc4:	00 00       	nop
     dc6:	0f 90       	pop	r0
     dc8:	0f 90       	pop	r0
     dca:	df 91       	pop	r29
     dcc:	cf 91       	pop	r28
     dce:	08 95       	ret

00000dd0 <logic_gates_do_flipflop>:
     dd0:	cf 93       	push	r28
     dd2:	df 93       	push	r29
     dd4:	00 d0       	rcall	.+0      	; 0xdd6 <logic_gates_do_flipflop+0x6>
     dd6:	00 d0       	rcall	.+0      	; 0xdd8 <logic_gates_do_flipflop+0x8>
     dd8:	cd b7       	in	r28, 0x3d	; 61
     dda:	de b7       	in	r29, 0x3e	; 62
     ddc:	9a 83       	std	Y+2, r25	; 0x02
     dde:	89 83       	std	Y+1, r24	; 0x01
     de0:	6b 83       	std	Y+3, r22	; 0x03
     de2:	4c 83       	std	Y+4, r20	; 0x04
     de4:	8b 81       	ldd	r24, Y+3	; 0x03
     de6:	88 23       	and	r24, r24
     de8:	61 f0       	breq	.+24     	; 0xe02 <logic_gates_do_flipflop+0x32>
     dea:	89 81       	ldd	r24, Y+1	; 0x01
     dec:	9a 81       	ldd	r25, Y+2	; 0x02
     dee:	fc 01       	movw	r30, r24
     df0:	90 81       	ld	r25, Z
     df2:	81 e0       	ldi	r24, 0x01	; 1
     df4:	89 27       	eor	r24, r25
     df6:	88 23       	and	r24, r24
     df8:	21 f0       	breq	.+8      	; 0xe02 <logic_gates_do_flipflop+0x32>
     dfa:	89 81       	ldd	r24, Y+1	; 0x01
     dfc:	9a 81       	ldd	r25, Y+2	; 0x02
     dfe:	fc 01       	movw	r30, r24
     e00:	12 82       	std	Z+2, r1	; 0x02
     e02:	8c 81       	ldd	r24, Y+4	; 0x04
     e04:	88 23       	and	r24, r24
     e06:	69 f0       	breq	.+26     	; 0xe22 <logic_gates_do_flipflop+0x52>
     e08:	89 81       	ldd	r24, Y+1	; 0x01
     e0a:	9a 81       	ldd	r25, Y+2	; 0x02
     e0c:	fc 01       	movw	r30, r24
     e0e:	91 81       	ldd	r25, Z+1	; 0x01
     e10:	81 e0       	ldi	r24, 0x01	; 1
     e12:	89 27       	eor	r24, r25
     e14:	88 23       	and	r24, r24
     e16:	29 f0       	breq	.+10     	; 0xe22 <logic_gates_do_flipflop+0x52>
     e18:	89 81       	ldd	r24, Y+1	; 0x01
     e1a:	9a 81       	ldd	r25, Y+2	; 0x02
     e1c:	21 e0       	ldi	r18, 0x01	; 1
     e1e:	fc 01       	movw	r30, r24
     e20:	22 83       	std	Z+2, r18	; 0x02
     e22:	89 81       	ldd	r24, Y+1	; 0x01
     e24:	9a 81       	ldd	r25, Y+2	; 0x02
     e26:	2b 81       	ldd	r18, Y+3	; 0x03
     e28:	fc 01       	movw	r30, r24
     e2a:	20 83       	st	Z, r18
     e2c:	89 81       	ldd	r24, Y+1	; 0x01
     e2e:	9a 81       	ldd	r25, Y+2	; 0x02
     e30:	2c 81       	ldd	r18, Y+4	; 0x04
     e32:	fc 01       	movw	r30, r24
     e34:	21 83       	std	Z+1, r18	; 0x01
     e36:	00 00       	nop
     e38:	0f 90       	pop	r0
     e3a:	0f 90       	pop	r0
     e3c:	0f 90       	pop	r0
     e3e:	0f 90       	pop	r0
     e40:	df 91       	pop	r29
     e42:	cf 91       	pop	r28
     e44:	08 95       	ret

00000e46 <main>:
     e46:	cf 93       	push	r28
     e48:	df 93       	push	r29
     e4a:	cd b7       	in	r28, 0x3d	; 61
     e4c:	de b7       	in	r29, 0x3e	; 62
     e4e:	0e 94 48 00 	call	0x90	; 0x90 <gpio_init>
     e52:	ff cf       	rjmp	.-2      	; 0xe52 <main+0xc>

00000e54 <spi_init>:
     e54:	cf 93       	push	r28
     e56:	df 93       	push	r29
     e58:	cd b7       	in	r28, 0x3d	; 61
     e5a:	de b7       	in	r29, 0x3e	; 62
     e5c:	88 e2       	ldi	r24, 0x28	; 40
     e5e:	90 e0       	ldi	r25, 0x00	; 0
     e60:	2f ef       	ldi	r18, 0xFF	; 255
     e62:	fc 01       	movw	r30, r24
     e64:	20 83       	st	Z, r18
     e66:	8c e4       	ldi	r24, 0x4C	; 76
     e68:	90 e0       	ldi	r25, 0x00	; 0
     e6a:	23 e5       	ldi	r18, 0x53	; 83
     e6c:	fc 01       	movw	r30, r24
     e6e:	20 83       	st	Z, r18
     e70:	40 e0       	ldi	r20, 0x00	; 0
     e72:	60 e0       	ldi	r22, 0x00	; 0
     e74:	81 e0       	ldi	r24, 0x01	; 1
     e76:	0e 94 9f 07 	call	0xf3e	; 0xf3e <spi_write>
     e7a:	40 e0       	ldi	r20, 0x00	; 0
     e7c:	60 e0       	ldi	r22, 0x00	; 0
     e7e:	80 e0       	ldi	r24, 0x00	; 0
     e80:	0e 94 9f 07 	call	0xf3e	; 0xf3e <spi_write>
     e84:	40 e0       	ldi	r20, 0x00	; 0
     e86:	69 e0       	ldi	r22, 0x09	; 9
     e88:	81 e0       	ldi	r24, 0x01	; 1
     e8a:	0e 94 9f 07 	call	0xf3e	; 0xf3e <spi_write>
     e8e:	40 e0       	ldi	r20, 0x00	; 0
     e90:	69 e0       	ldi	r22, 0x09	; 9
     e92:	80 e0       	ldi	r24, 0x00	; 0
     e94:	0e 94 9f 07 	call	0xf3e	; 0xf3e <spi_write>
     e98:	00 00       	nop
     e9a:	df 91       	pop	r29
     e9c:	cf 91       	pop	r28
     e9e:	08 95       	ret

00000ea0 <spi_gpio>:
     ea0:	cf 93       	push	r28
     ea2:	df 93       	push	r29
     ea4:	00 d0       	rcall	.+0      	; 0xea6 <spi_gpio+0x6>
     ea6:	00 d0       	rcall	.+0      	; 0xea8 <spi_gpio+0x8>
     ea8:	cd b7       	in	r28, 0x3d	; 61
     eaa:	de b7       	in	r29, 0x3e	; 62
     eac:	8b 83       	std	Y+3, r24	; 0x03
     eae:	6c 83       	std	Y+4, r22	; 0x04
     eb0:	8b 81       	ldd	r24, Y+3	; 0x03
     eb2:	82 95       	swap	r24
     eb4:	8f 70       	andi	r24, 0x0F	; 15
     eb6:	81 70       	andi	r24, 0x01	; 1
     eb8:	89 83       	std	Y+1, r24	; 0x01
     eba:	89 81       	ldd	r24, Y+1	; 0x01
     ebc:	88 23       	and	r24, r24
     ebe:	09 f4       	brne	.+2      	; 0xec2 <spi_gpio+0x22>
     ec0:	19 82       	std	Y+1, r1	; 0x01
     ec2:	89 81       	ldd	r24, Y+1	; 0x01
     ec4:	81 30       	cpi	r24, 0x01	; 1
     ec6:	11 f4       	brne	.+4      	; 0xecc <spi_gpio+0x2c>
     ec8:	81 e0       	ldi	r24, 0x01	; 1
     eca:	89 83       	std	Y+1, r24	; 0x01
     ecc:	8b 81       	ldd	r24, Y+3	; 0x03
     ece:	8f 70       	andi	r24, 0x0F	; 15
     ed0:	8b 83       	std	Y+3, r24	; 0x03
     ed2:	69 e0       	ldi	r22, 0x09	; 9
     ed4:	89 81       	ldd	r24, Y+1	; 0x01
     ed6:	0e 94 e4 07 	call	0xfc8	; 0xfc8 <spi_read>
     eda:	8a 83       	std	Y+2, r24	; 0x02
     edc:	8c 81       	ldd	r24, Y+4	; 0x04
     ede:	88 23       	and	r24, r24
     ee0:	99 f0       	breq	.+38     	; 0xf08 <spi_gpio+0x68>
     ee2:	8b 81       	ldd	r24, Y+3	; 0x03
     ee4:	28 2f       	mov	r18, r24
     ee6:	30 e0       	ldi	r19, 0x00	; 0
     ee8:	81 e0       	ldi	r24, 0x01	; 1
     eea:	90 e0       	ldi	r25, 0x00	; 0
     eec:	02 c0       	rjmp	.+4      	; 0xef2 <spi_gpio+0x52>
     eee:	88 0f       	add	r24, r24
     ef0:	99 1f       	adc	r25, r25
     ef2:	2a 95       	dec	r18
     ef4:	e2 f7       	brpl	.-8      	; 0xeee <spi_gpio+0x4e>
     ef6:	98 2f       	mov	r25, r24
     ef8:	8a 81       	ldd	r24, Y+2	; 0x02
     efa:	89 2b       	or	r24, r25
     efc:	48 2f       	mov	r20, r24
     efe:	69 e0       	ldi	r22, 0x09	; 9
     f00:	89 81       	ldd	r24, Y+1	; 0x01
     f02:	0e 94 9f 07 	call	0xf3e	; 0xf3e <spi_write>
     f06:	13 c0       	rjmp	.+38     	; 0xf2e <spi_gpio+0x8e>
     f08:	8b 81       	ldd	r24, Y+3	; 0x03
     f0a:	28 2f       	mov	r18, r24
     f0c:	30 e0       	ldi	r19, 0x00	; 0
     f0e:	81 e0       	ldi	r24, 0x01	; 1
     f10:	90 e0       	ldi	r25, 0x00	; 0
     f12:	02 c0       	rjmp	.+4      	; 0xf18 <spi_gpio+0x78>
     f14:	88 0f       	add	r24, r24
     f16:	99 1f       	adc	r25, r25
     f18:	2a 95       	dec	r18
     f1a:	e2 f7       	brpl	.-8      	; 0xf14 <spi_gpio+0x74>
     f1c:	98 2f       	mov	r25, r24
     f1e:	90 95       	com	r25
     f20:	8a 81       	ldd	r24, Y+2	; 0x02
     f22:	89 23       	and	r24, r25
     f24:	48 2f       	mov	r20, r24
     f26:	69 e0       	ldi	r22, 0x09	; 9
     f28:	89 81       	ldd	r24, Y+1	; 0x01
     f2a:	0e 94 9f 07 	call	0xf3e	; 0xf3e <spi_write>
     f2e:	00 00       	nop
     f30:	0f 90       	pop	r0
     f32:	0f 90       	pop	r0
     f34:	0f 90       	pop	r0
     f36:	0f 90       	pop	r0
     f38:	df 91       	pop	r29
     f3a:	cf 91       	pop	r28
     f3c:	08 95       	ret

00000f3e <spi_write>:
     f3e:	cf 93       	push	r28
     f40:	df 93       	push	r29
     f42:	00 d0       	rcall	.+0      	; 0xf44 <spi_write+0x6>
     f44:	1f 92       	push	r1
     f46:	cd b7       	in	r28, 0x3d	; 61
     f48:	de b7       	in	r29, 0x3e	; 62
     f4a:	89 83       	std	Y+1, r24	; 0x01
     f4c:	6a 83       	std	Y+2, r22	; 0x02
     f4e:	4b 83       	std	Y+3, r20	; 0x03
     f50:	88 e2       	ldi	r24, 0x28	; 40
     f52:	90 e0       	ldi	r25, 0x00	; 0
     f54:	28 e2       	ldi	r18, 0x28	; 40
     f56:	30 e0       	ldi	r19, 0x00	; 0
     f58:	f9 01       	movw	r30, r18
     f5a:	20 81       	ld	r18, Z
     f5c:	62 2f       	mov	r22, r18
     f5e:	29 81       	ldd	r18, Y+1	; 0x01
     f60:	42 2f       	mov	r20, r18
     f62:	50 e0       	ldi	r21, 0x00	; 0
     f64:	21 e0       	ldi	r18, 0x01	; 1
     f66:	30 e0       	ldi	r19, 0x00	; 0
     f68:	02 c0       	rjmp	.+4      	; 0xf6e <spi_write+0x30>
     f6a:	22 0f       	add	r18, r18
     f6c:	33 1f       	adc	r19, r19
     f6e:	4a 95       	dec	r20
     f70:	e2 f7       	brpl	.-8      	; 0xf6a <spi_write+0x2c>
     f72:	20 95       	com	r18
     f74:	26 23       	and	r18, r22
     f76:	fc 01       	movw	r30, r24
     f78:	20 83       	st	Z, r18
     f7a:	60 e4       	ldi	r22, 0x40	; 64
     f7c:	81 e0       	ldi	r24, 0x01	; 1
     f7e:	0e 94 29 08 	call	0x1052	; 0x1052 <spi_xfer>
     f82:	6a 81       	ldd	r22, Y+2	; 0x02
     f84:	81 e0       	ldi	r24, 0x01	; 1
     f86:	0e 94 29 08 	call	0x1052	; 0x1052 <spi_xfer>
     f8a:	6b 81       	ldd	r22, Y+3	; 0x03
     f8c:	81 e0       	ldi	r24, 0x01	; 1
     f8e:	0e 94 29 08 	call	0x1052	; 0x1052 <spi_xfer>
     f92:	88 e2       	ldi	r24, 0x28	; 40
     f94:	90 e0       	ldi	r25, 0x00	; 0
     f96:	28 e2       	ldi	r18, 0x28	; 40
     f98:	30 e0       	ldi	r19, 0x00	; 0
     f9a:	f9 01       	movw	r30, r18
     f9c:	20 81       	ld	r18, Z
     f9e:	62 2f       	mov	r22, r18
     fa0:	29 81       	ldd	r18, Y+1	; 0x01
     fa2:	42 2f       	mov	r20, r18
     fa4:	50 e0       	ldi	r21, 0x00	; 0
     fa6:	21 e0       	ldi	r18, 0x01	; 1
     fa8:	30 e0       	ldi	r19, 0x00	; 0
     faa:	02 c0       	rjmp	.+4      	; 0xfb0 <spi_write+0x72>
     fac:	22 0f       	add	r18, r18
     fae:	33 1f       	adc	r19, r19
     fb0:	4a 95       	dec	r20
     fb2:	e2 f7       	brpl	.-8      	; 0xfac <spi_write+0x6e>
     fb4:	26 2b       	or	r18, r22
     fb6:	fc 01       	movw	r30, r24
     fb8:	20 83       	st	Z, r18
     fba:	00 00       	nop
     fbc:	0f 90       	pop	r0
     fbe:	0f 90       	pop	r0
     fc0:	0f 90       	pop	r0
     fc2:	df 91       	pop	r29
     fc4:	cf 91       	pop	r28
     fc6:	08 95       	ret

00000fc8 <spi_read>:
     fc8:	cf 93       	push	r28
     fca:	df 93       	push	r29
     fcc:	00 d0       	rcall	.+0      	; 0xfce <spi_read+0x6>
     fce:	1f 92       	push	r1
     fd0:	cd b7       	in	r28, 0x3d	; 61
     fd2:	de b7       	in	r29, 0x3e	; 62
     fd4:	8a 83       	std	Y+2, r24	; 0x02
     fd6:	6b 83       	std	Y+3, r22	; 0x03
     fd8:	88 e2       	ldi	r24, 0x28	; 40
     fda:	90 e0       	ldi	r25, 0x00	; 0
     fdc:	28 e2       	ldi	r18, 0x28	; 40
     fde:	30 e0       	ldi	r19, 0x00	; 0
     fe0:	f9 01       	movw	r30, r18
     fe2:	20 81       	ld	r18, Z
     fe4:	62 2f       	mov	r22, r18
     fe6:	2a 81       	ldd	r18, Y+2	; 0x02
     fe8:	42 2f       	mov	r20, r18
     fea:	50 e0       	ldi	r21, 0x00	; 0
     fec:	21 e0       	ldi	r18, 0x01	; 1
     fee:	30 e0       	ldi	r19, 0x00	; 0
     ff0:	02 c0       	rjmp	.+4      	; 0xff6 <spi_read+0x2e>
     ff2:	22 0f       	add	r18, r18
     ff4:	33 1f       	adc	r19, r19
     ff6:	4a 95       	dec	r20
     ff8:	e2 f7       	brpl	.-8      	; 0xff2 <spi_read+0x2a>
     ffa:	20 95       	com	r18
     ffc:	26 23       	and	r18, r22
     ffe:	fc 01       	movw	r30, r24
    1000:	20 83       	st	Z, r18
    1002:	61 e4       	ldi	r22, 0x41	; 65
    1004:	8a 81       	ldd	r24, Y+2	; 0x02
    1006:	0e 94 29 08 	call	0x1052	; 0x1052 <spi_xfer>
    100a:	6b 81       	ldd	r22, Y+3	; 0x03
    100c:	8a 81       	ldd	r24, Y+2	; 0x02
    100e:	0e 94 29 08 	call	0x1052	; 0x1052 <spi_xfer>
    1012:	6f ef       	ldi	r22, 0xFF	; 255
    1014:	8a 81       	ldd	r24, Y+2	; 0x02
    1016:	0e 94 29 08 	call	0x1052	; 0x1052 <spi_xfer>
    101a:	89 83       	std	Y+1, r24	; 0x01
    101c:	88 e2       	ldi	r24, 0x28	; 40
    101e:	90 e0       	ldi	r25, 0x00	; 0
    1020:	28 e2       	ldi	r18, 0x28	; 40
    1022:	30 e0       	ldi	r19, 0x00	; 0
    1024:	f9 01       	movw	r30, r18
    1026:	20 81       	ld	r18, Z
    1028:	62 2f       	mov	r22, r18
    102a:	2a 81       	ldd	r18, Y+2	; 0x02
    102c:	42 2f       	mov	r20, r18
    102e:	50 e0       	ldi	r21, 0x00	; 0
    1030:	21 e0       	ldi	r18, 0x01	; 1
    1032:	30 e0       	ldi	r19, 0x00	; 0
    1034:	02 c0       	rjmp	.+4      	; 0x103a <spi_read+0x72>
    1036:	22 0f       	add	r18, r18
    1038:	33 1f       	adc	r19, r19
    103a:	4a 95       	dec	r20
    103c:	e2 f7       	brpl	.-8      	; 0x1036 <spi_read+0x6e>
    103e:	26 2b       	or	r18, r22
    1040:	fc 01       	movw	r30, r24
    1042:	20 83       	st	Z, r18
    1044:	89 81       	ldd	r24, Y+1	; 0x01
    1046:	0f 90       	pop	r0
    1048:	0f 90       	pop	r0
    104a:	0f 90       	pop	r0
    104c:	df 91       	pop	r29
    104e:	cf 91       	pop	r28
    1050:	08 95       	ret

00001052 <spi_xfer>:
    1052:	cf 93       	push	r28
    1054:	df 93       	push	r29
    1056:	00 d0       	rcall	.+0      	; 0x1058 <spi_xfer+0x6>
    1058:	cd b7       	in	r28, 0x3d	; 61
    105a:	de b7       	in	r29, 0x3e	; 62
    105c:	89 83       	std	Y+1, r24	; 0x01
    105e:	6a 83       	std	Y+2, r22	; 0x02
    1060:	8e e4       	ldi	r24, 0x4E	; 78
    1062:	90 e0       	ldi	r25, 0x00	; 0
    1064:	2a 81       	ldd	r18, Y+2	; 0x02
    1066:	fc 01       	movw	r30, r24
    1068:	20 83       	st	Z, r18
    106a:	00 00       	nop
    106c:	8d e4       	ldi	r24, 0x4D	; 77
    106e:	90 e0       	ldi	r25, 0x00	; 0
    1070:	fc 01       	movw	r30, r24
    1072:	80 81       	ld	r24, Z
    1074:	88 23       	and	r24, r24
    1076:	d4 f7       	brge	.-12     	; 0x106c <spi_xfer+0x1a>
    1078:	8e e4       	ldi	r24, 0x4E	; 78
    107a:	90 e0       	ldi	r25, 0x00	; 0
    107c:	fc 01       	movw	r30, r24
    107e:	80 81       	ld	r24, Z
    1080:	0f 90       	pop	r0
    1082:	0f 90       	pop	r0
    1084:	df 91       	pop	r29
    1086:	cf 91       	pop	r28
    1088:	08 95       	ret

0000108a <_exit>:
    108a:	f8 94       	cli

0000108c <__stop_program>:
    108c:	ff cf       	rjmp	.-2      	; 0x108c <__stop_program>
